(dp1
S'output'
p2
S"<type 'exceptions.SyntaxError'> invalid syntax (moreresume1.html, line 175)"
p3
sS'layer'
p4
S'/home/user/Desktop/web2py/applications/resume/views/default/moreresume1.html'
p5
sS'code'
p6
S'response.write(\'<!DOCTYPE html>\\n<!--[if (gt IE 9)|!(IE)]><!--> <html class="no-js" lang="\', escape=False)\nresponse.write(T.accepted_language or \'en\')\nresponse.write(\'"> <!--<![endif]-->\\n  <head>\\n    <meta charset="utf-8">\\n    <!-- www.phpied.com/conditional-comments-block-downloads/ -->\\n    <!-- Always force latest IE rendering engine\\n         (even in intranet) & Chrome Frame\\n         Remove this if you use the .htaccess -->\\n    <meta http-equiv="X-UA-Compatible" content="IE=edge\', escape=False)\nresponse.write(not request.is_local and \',chrome=1\' or \'\')\nresponse.write(\'">\\n    <!--  Mobile Viewport Fix\\n          j.mp/mobileviewport & davidbcalhoun.com/2010/viewport-metatag\\n          device-width: Occupy full width of the screen in its current orientation\\n          initial-scale = 1.0 retains dimensions instead of zooming out if page height > device height\\n          user-scalable = yes allows the user to zoom in -->\\n    <meta name="viewport" content="width=device-width, initial-scale=1.0">\\n    <title>\', escape=False)\nresponse.write(response.title or request.application)\nresponse.write(\'</title>\\n    <!-- http://dev.w3.org/html5/markup/meta.name.html -->\\n    <meta name="application-name" content="\', escape=False)\nresponse.write(request.application)\nresponse.write(\'">\\n    <!-- Speaking of Google, don\\\'t forget to set your site up:\\n         http://google.com/webmasters -->\\n    <meta name="google-site-verification" content="">\\n    <!-- include stylesheets -->\\n    <link rel="stylesheet" href="\', escape=False)\nresponse.write(URL(\'static\',\'css/bootstrap.min.css\'))\nresponse.write(\'"/>\\n    <link rel="stylesheet" href="\', escape=False)\nresponse.write(URL(\'static\',\'css/web2py-bootstrap3.css\'))\nresponse.write(\'"/>\\n    <link rel="shortcut icon" href="\', escape=False)\nresponse.write(URL(\'static\',\'images/favicon.ico\'))\nresponse.write(\'" type="image/x-icon">\\n    <link rel="apple-touch-icon" href="\', escape=False)\nresponse.write(URL(\'static\',\'images/favicon.png\'))\nresponse.write(\'">\\n    <!-- All JavaScript at the bottom, except for Modernizr which enables\\n         HTML5 elements & feature detects -->\\n    <script src="\', escape=False)\nresponse.write(URL(\'static\',\'js/modernizr-2.8.3.min.js\'))\nresponse.write(\'"></script>\\n    <!--[if lt IE 9]>\\n        <script src="\', escape=False)\nresponse.write(URL(\'static\',\'js/respond-1.4.2.min.js\'))\nresponse.write(\'"></script>\\n        <![endif]-->\\n    <!-- Favicons -->\\n    \', escape=False)\nresponse.write(\'<script type="text/javascript"><!--\\n    // These variables are used by the web2py_ajax_init function in web2py_ajax.js (which is loaded below).\\n    var w2p_ajax_confirm_message = "\', escape=False)\nresponse.write(T(\'Are you sure you want to delete this object?\'))\nresponse.write(\'";\\n    var w2p_ajax_disable_with_message = "\', escape=False)\nresponse.write(T(\'Working...\'))\nresponse.write(\'";\\n    var w2p_ajax_date_format = "\', escape=False)\nresponse.write(T(\'%Y-%m-%d\'))\nresponse.write(\'";\\n    var w2p_ajax_datetime_format = "\', escape=False)\nresponse.write(T(\'%Y-%m-%d %H:%M:%S\'))\nresponse.write(\'";\\n    var ajax_error_500 = \\\'\', escape=False)\nresponse.write(T.M(\'An error occured, please [[reload %s]] the page\') % URL(args=request.args, vars=request.get_vars))\nresponse.write("\'\\n    //--></script>\\n", escape=False)\nresponse.files.insert(0,URL(\'static\',\'js/jquery.js\'))\nresponse.files.insert(1,URL(\'static\',\'css/calendar.css\'))\nresponse.files.insert(2,URL(\'static\',\'js/calendar.js\'))\nresponse.files.insert(3,URL(\'static\',\'js/web2py.js\'))\nresponse.include_meta()\nresponse.include_files()\nresponse.write(\'\\n\', escape=False)\nresponse.write(\' <!-- this includes jquery.js, calendar.js/.css and web2py.js -->\\n    \', escape=False)\nresponse.write(\'\\n    \', escape=False)\n# using sidebars need to know what sidebar you want to use\nmc0 = \'col-md-12\'\nmc1 = \'col-md-9\'\nmc2 = \'col-md-6\'\nleft_sidebar_enabled = globals().get(\'left_sidebar_enabled\', False)\nright_sidebar_enabled = globals().get(\'right_sidebar_enabled\', False)\nmiddle_column = {0: mc0, 1: mc1, 2: mc2}[\n(left_sidebar_enabled and 1 or 0)+(right_sidebar_enabled and 1 or 0)]\nresponse.write(\'\\n  </head>\\n  <body>\\n    <!--[if lt IE 8]><p class="browserupgrade">You are using an <strong>outdated</strong> browser. Please <a href="http://browsehappy.com/">upgrade your browser</a> to improve your experience.</p><![endif]-->\\n    <div class="w2p_flash alert alert-dismissable">\', escape=False)\nresponse.write(response.flash or \'\')\nresponse.write(\'</div>\\n    <!-- Navbar ======================================= -->\\n    <nav class="navbar navbar-default navbar-fixed-top" role="navigation">\\n      <div class="container-fluid">\\n        <div class="navbar-header">\\n          <button type="button" class="navbar-toggle" data-toggle="collapse" data-target=".navbar-collapse">\\n            <span class="sr-only">Toggle navigation</span>\\n            <span class="icon-bar"></span>\\n            <span class="icon-bar"></span>\\n            <span class="icon-bar"></span>\\n          </button>\\n          \', escape=False)\nresponse.write(response.logo or \'\')\nresponse.write(\'\\n        </div>\\n        <div class="collapse navbar-collapse navbar-ex1-collapse">\\n          <ul class="nav navbar-nav navbar-right">\\n            \', escape=False)\nresponse.write(\'auth\' in globals() and auth.navbar(\'Welcome\',mode=\'dropdown\') or \'\')\nresponse.write(\'\\n          </ul>\\n          \', escape=False)\nif response.menu:\n    response.write(\'\\n          \', escape=False)\n    response.write(MENU(response.menu, _class=\'nav navbar-nav\',li_class=\'dropdown\',ul_class=\'dropdown-menu\'))\n    response.write(\'\\n          \', escape=False)\n    pass\nresponse.write(\'\\n        </div>\\n      </div>\\n    </nav>\\n    <!-- Masthead ===================================== -->    \\n    \', escape=False)\nresponse.write(\'\\n    \', escape=False)\nresponse.write(\'\\n    <!-- Main ========================================= -->\\n    <!-- Begin page content -->\\n    <div class="container-fluid main-container">\\n      \', escape=False)\nif left_sidebar_enabled:\n    response.write(\'\\n        <div class="col-md-3 left-sidebar">\\n            \', escape=False)\n    response.write(\'\\n            <h3>Left Sidebar</h3>\\n            <p></p>\\n            \', escape=False)\n    response.write(\'\\n        </div>\\n      \', escape=False)\n    pass\nresponse.write(\'\\n\\n      <div class="\', escape=False)\nresponse.write(middle_column)\nresponse.write(\'">\\n        \', escape=False)\nresponse.write(\'\\n        \', escape=False)\nresponse.write(\'\\n<style>\\n\', escape=False)\nif request.args(1)==\'1\':\n    response.write(\'\\n#JSFiddle div.block p {\\n    line-height: 1.4em;\\n    margin: 0 0 .6em\\n}\\n\\n#JSFiddle div.block p.sub-title {\\n    font-size: 1.2em;\\n    font-weight: bold;\\n    margin: 0\\n}\\n\\n#JSFiddle div.block p.sub-where {\\n    font-size: 1.1em;\\n    margin: 0\\n}\\n\\n#JSFiddle div.block p.sub-dates {\\n    font-size: 1em;\\n    color: #555;\\n    margin: 0 0 .5em\\n}\\n\\n#JSFiddle div.block p.person {\\n    font-size: 4em;\\n    margin-bottom: 0;\\n    line-height: 1.2em;\\n    margin-top: -.2em\\n}\\n\\n#JSFiddle div.block p.jobtitle {\\n    font-size: 1.2em;\\n    margin: 0\\n}\\n\\n#JSFiddle div.block p.location {\\n    font-size: 1em;\\n    color: #555\\n}\\n\\n#JSFiddle div.block span.company {\\n    color: #555;\\n    font-weight: bold\\n}\\n\\n#JSFiddle div.block p.title {\\n    font-size: 1.3em;\\n    font-weight: bold;\\n    margin-bottom: .5em;\\n    background: #eee;\\n    padding: .2em .5em\\n}\\n\\n#JSFiddle div.block.person {\\n    margin: 0;\\n}\\n\\n#JSFiddle table.wide {\\n    width: 100%;\\n    border-collapse: collapse\\n}\\n\\n#JSFiddle td.left {\\n    width: 30%;\\n    vertical-align: top\\n}\\n\\n#JSFiddle td.right {\\n    width: 70%;\\n    vertical-align: top\\n}\\n\', escape=False)\n    pass\nresponse.write(\'\\n\\n\\n\\n\', escape=False)\nif request.args(1)==\'2\':\n    response.write(\'\\n#JSFiddle div.block p {\\n    line-height: 1.4em;\\n    margin: 0 0 .6em\\n}\\n\\n#JSFiddle div.blocks * {\\n    line-height: 1.4em\\n}\\n\\n#JSFiddle div.block p.person {\\n    font-size: 3em;\\n    margin-bottom: 0;\\n    padding: 0 .2em;\\n    line-height: 1em\\n}\\n\\n#JSFiddle div.block p.jobtitle {\\n    font-size: 1.2em;\\n    margin: .5em 0 0;\\n    border-top: 1px solid #a77;\\n    padding: .3em 10px 0 0\\n}\\n\\n#JSFiddle div.block p.location {\\n    font-size: 1em;\\n    color: #fff;\\n    padding-right: 10px\\n}\\n\\n#JSFiddle div.block p.title {\\n    font-size: 1.3em;\\n    font-weight: bold;\\n    margin-bottom: .5em;\\n    color: #800\\n}\\n\\n#JSFiddle div.block p.sub-title {\\n    font-size: 1.2em;\\n    font-weight: bold;\\n    margin: 0\\n}\\n\\n#JSFiddle div.block p.sub-where {\\n    font-size: 1.1em;\\n    margin: 0\\n}\\n\\n#JSFiddle div.block p.sub-dates {\\n    font-size: 1em;\\n    color: #555;\\n    margin: 0 0 .5em\\n}\\n\\n#JSFiddle div.block span.company {\\n    color: #555;\\n    font-weight: bold\\n}\\n\\n#JSFiddle div.blocks {\\n    padding-top: 13em\\n}\\n\\n#JSFiddle div.block.person {\\n    margin-top: 15mm;\\n    text-align: right;\\n    border-color: transparent\\n}\\n\\n#JSFiddle div.block.contact {\\n    margin: 15mm 8.13953488372093% 0 1em !important;\\n    border-color: transparent;\\n    font-size: 1.2em;\\n    color: #555\\n}\\n\\n#JSFiddle table.wide {\\n    position: absolute;\\n    width: 340mm;\\n    border-collapse: collapse;\\n    margin: -1.8mm -1.13953488372093% 0 -2.4%\\n}\\n\\n#JSFiddle table.wide > tbody {\\n    display: inline-table;\\n    width: 340mm;\\n    padding-left: 8.13953488372093%;\\n    padding-right: 8.13953488372093%\\n}\\n\\n#JSFiddle td.left {\\n    width: 50%;\\n    vertical-align: top;\\n    background: #800;\\n    border-right: 4px solid #000;\\n    color: #fff;\\n    padding-left: 7%;\\n    padding-bottom: 2em\\n}\\n\\n#JSFiddle td.right {\\n    width: 50%;\\n    vertical-align: top;\\n    background: #eee;\\n    border-left: 4px solid #000;\\n    line-height: 2em\\n}\\n\\n#JSFiddle div.blocks {\\n    padding-top: 175.65px\\n}\\n\', escape=False)\n    pass\nresponse.write(\'\\n\\n\\n\\n\', escape=False)\nif request.args(1)==\'3\':\n    response.write(\'\\n#JSFiddle table.person {\\n    margin-left: -0.3em\\n}\\n\\n#JSFiddle td.firstname {\\n    font-size: 3em;\\n    height: .5em;\\n    padding: 0\\n}\\n\\n#JSFiddle td.lastname {\\n    font-size: 5em;\\n    height: 1em;\\n    padding: .05em 0;\\n    line-height: 1em\\n}\\n\\n#JSFiddle div.block p {\\n    line-height: 1.2em;\\n    margin: 0 0 .6em\\n}\\n\\n#JSFiddle div.block p.person {\\n    font-size: 4em;\\n    margin-bottom: 0\\n}\\n\\n#JSFiddle div.block p.sub-title {\\n    font-size: 1.2em;\\n    font-weight: bold;\\n    margin: 0 0 .2em\\n}\\n\\n#JSFiddle div.block p.sub-where {\\n    font-size: 1.1em;\\n    margin: 0 0 .2em\\n}\\n\\n#JSFiddle div.block p.sub-dates {\\n    font-size: 1em;\\n    color: #555;\\n    margin: 0 0 .5em\\n}\\n\\n#JSFiddle div.block p.jobtitle {\\n    font-size: 1.2em;\\n    margin: .6em 0 .2em\\n}\\n\\n#JSFiddle div.block p.location {\\n    font-size: 1em;\\n    color: #555\\n}\\n\\n#JSFiddle div.block span.company {\\n    color: #555;\\n    font-weight: bold\\n}\\n\\n#JSFiddle div.block p.title {\\n    font-size: 1.3em;\\n    font-weight: bold;\\n    margin-bottom: .5em;\\n    padding-bottom: .2em;\\n    border-bottom: .2em solid #ddd\\n}\\n\\n#JSFiddle div.blocks * {\\n    line-height: 1.4em;\\n}\\n\\n#JSFiddle table.wide {\\n    width: 100%;\\n    border-collapse: collapse\\n}\\n\\n#JSFiddle td.left {\\n    width: 65%;\\n    vertical-align: top\\n}\\n\\n#JSFiddle td.right {\\n    width: 35%;\\n    vertical-align: top;\\n    text-align: right\\n}\\n\', escape=False)\n    pass\nresponse.write(\'\\n\\n\\n\\n\', escape=False)\nif request.args(1)==\'4\':\n    response.write(\'\\n#JSFiddle div.block p {\\n    line-height: 1.4em;\\n    margin: 0 0 .6em\\n}\\n\\n#JSFiddle div.block p.sub-title {\\n    font-size: 1.2em;\\n    font-weight: bold;\\n    margin: 0\\n}\\n\\n#JSFiddle div.block p.sub-where {\\n    font-size: 1.1em;\\n    margin: 0\\n}\\n\\n#JSFiddle div.block p.sub-dates {\\n    font-size: 1em;\\n    color: #555;\\n    margin: 0 0 .5em\\n}\\n\\n#JSFiddle div.block p.person {\\n    font-size: 4em;\\n    margin-bottom: 0;\\n    line-height: 1.2em;\\n    margin-top: -.2em;\\n}\\n\\n#JSFiddle div.block p.jobtitle {\\n    font-size: 1.2em;\\n    margin: 0\\n}\\n\\n#JSFiddle div.block p.location {\\n    font-size: 1em;\\n    color: #555;\\n    margin: 0\\n}\\n\\n#JSFiddle div.block span.company {\\n    color: #555;\\n    font-weight: bold\\n}\\n\\n#JSFiddle div.block p.title {\\n    font-size: 1.3em;\\n    font-weight: bold;\\n    margin: 0 0 .5em 0;\\n    padding: .2em;\\n    text-transform: uppercase;\\n    border-top: .2em dotted #aaa\\n}\\n\\n#JSFiddle div.blocks {\\n    margin-top: 1em\\n}\\n\\n#JSFiddle div.block-inner {\\n    margin-left: 2em\\n}\\n\\n#JSFiddle table.wide {\\n    width: 100%;\\n    border-collapse: collapse\\n}\\n\\n#JSFiddle td.left {\\n    width: 65%;\\n    vertical-align: top\\n}\\n\\n#JSFiddle td.right {\\n    width: 35%;\\n    vertical-align: top;\\n    text-align: right\\n}\\n\', escape=False)\n    pass\nresponse.write(\'\\n\\n\\n\\n\', escape=False)\nif request.args(1)==\'5\':\n    response.write(\'\\n#JSFiddle div.block p {\\n    line-height: 1.4em;\\n    margin: 0 0 .6em\\n}\\n\\n#JSFiddle div.block p.sub-title {\\n    font-size: 1.2em;\\n    font-weight: bold;\\n    margin: 0\\n}\\n\\n#JSFiddle div.block p.sub-where {\\n    font-size: 1.1em;\\n    margin: 0\\n}\\n\\n#JSFiddle div.block p.sub-dates {\\n    font-size: 1em;\\n    color: #555;\\n    margin: 0 0 .5em\\n}\\n\\n#JSFiddle div.block p.person {\\n    font-size: 4em;\\n    margin-bottom: 0;\\n    line-height: 1.2em;\\n    margin-top: -.2em;\\n}\\n\\n#JSFiddle div.block p.jobtitle {\\n    font-size: 1.2em;\\n    margin: 0\\n}\\n\\n#JSFiddle div.block p.location {\\n    font-size: 1em;\\n    color: #555;\\n    margin: 0\\n}\\n\\n#JSFiddle div.block span.company {\\n    color: #555;\\n    font-weight: bold\\n}\\n\\n#JSFiddle div.block p.title {\\n    font-size: 1.3em;\\n    font-weight: bold;\\n    margin: 0 0 .5em 0;\\n    padding: .2em;\\n    text-transform: uppercase;\\n    border-bottom: .25em solid #bbb\\n}\\n\\n#JSFiddle div.blocks {\\n    margin-top: 1em\\n}\\n\\n#JSFiddle div.block-inner {\\n    margin-left: 2em\\n}\\n\\n#JSFiddle table.wide {\\n    width: 100%;\\n    border-collapse: collapse\\n}\\n\\n#JSFiddle td.left {\\n    width: 65%;\\n    vertical-align: top\\n}\\n\\n#JSFiddle td.right {\\n    width: 35%;\\n    vertical-align: top;\\n    text-align: right\\n}\\n\', escape=False)\n    pass\nresponse.write(\'\\n\\n\\n\\n\', escape=False)\nif request.args(1)==\'6\':\n    response.write(\'\\n#JSFiddle div.block p {\\n    line-height: 1.4em;\\n    margin: 0 0 .6em\\n}\\n\\n#JSFiddle div.block p.sub-title {\\n    font-size: 1.2em;\\n    font-weight: bold;\\n    margin: 0\\n}\\n\\n#JSFiddle div.block p.sub-where {\\n    font-size: 1.1em;\\n    margin: 0\\n}\\n\\n#JSFiddle div.block p.sub-dates {\\n    font-size: 1em;\\n    color: #555;\\n    margin: 0 0 .5em\\n}\\n\\n#JSFiddle div.block p.person {\\n    font-size: 4em;\\n    margin-bottom: 0;\\n    line-height: 1.2em;\\n    margin-top: -.2em;\\n}\\n\\n#JSFiddle div.block p.jobtitle {\\n    font-size: 1.2em;\\n    margin: 0\\n}\\n\\n#JSFiddle div.block p.location {\\n    font-size: 1em;\\n    color: #555;\\n    margin: 0\\n}\\n\\n#JSFiddle div.block span.company {\\n    color: #555;\\n    font-weight: bold\\n}\\n\\n#JSFiddle div.block p.title {\\n    font-size: 1.3em;\\n    font-weight: bold;\\n    margin: 0 0 .5em 0;\\n    padding: 0 .5em .1em;\\n    text-transform: uppercase;\\n    background: #ddd;\\n    border: 1px solid #ddd;\\n    -moz-border-radius: 0 0 1.3em 0;\\n    -webkit-border-radius: 0 0 1.3em 0;\\n    border-radius: 0 0 1.3em 0;\\n    border-bottom-right-radius: 1.3em\\n}\\n\\n#JSFiddle div.blocks {\\n    margin-top: 1em\\n}\\n\\n#JSFiddle div.block-inner {\\n    margin-left: 2em\\n}\\n\\n#JSFiddle td.block-title {\\n    width: 50%;\\n    padding: 0;\\n    border-top: .2em solid #ddd\\n}\\n\\n#JSFiddle table.wide {\\n    width: 100%;\\n    border-collapse: collapse\\n}\\n\\n#JSFiddle table.wide.title {\\n    page-break-inside: avoid;\\n    page-break-after: avoid\\n}\\n\\n#JSFiddle td.left {\\n    width: 65%;\\n    vertical-align: top\\n}\\n\\n#JSFiddle td.right {\\n    width: 35%;\\n    vertical-align: top;\\n    text-align: right\\n}\\n\', escape=False)\n    pass\nresponse.write(\'\\n\\n\\n\\n\', escape=False)\nif request.args(1)==\'7\':\n    response.write(\'\\n#JSFiddle div.block p {\\n    line-height: 1.4em;\\n    margin: .5em 0 .6em\\n}\\n\\n#JSFiddle div.block p.sub-title {\\n    font-size: 1.2em;\\n    font-weight: bold;\\n    margin: 0\\n}\\n\\n#JSFiddle div.block p.sub-where {\\n    font-size: 1.1em;\\n    margin: 0\\n}\\n\\n#JSFiddle div.block p.sub-dates {\\n    font-size: 1em;\\n    color: #555;\\n    margin: 0 0 .5em\\n}\\n\\n#JSFiddle div.block p.person {\\n    font-size: 4em;\\n    margin-bottom: 0;\\n    line-height: 1.2em;\\n    margin-top: -.2em;\\n}\\n\\n#JSFiddle div.block p.jobtitle {\\n    font-size: 1.2em;\\n    margin: 0\\n}\\n\\n#JSFiddle div.block p.location {\\n    font-size: 1em;\\n    color: #555;\\n    margin: 0\\n}\\n\\n#JSFiddle div.block span.company {\\n    color: #555;\\n    font-weight: bold\\n}\\n\\n#JSFiddle div.block p.title {\\n    font-size: 140%;\\n    font-weight: bold;\\n    margin: 0 0 .5em 0;\\n    padding: .2em 0;\\n    text-transform: uppercase\\n}\\n\\n#JSFiddle div.blocks {\\n    margin-top: 1em\\n}\\n\\n#JSFiddle table.wide {\\n    width: 100%;\\n    border-collapse: collapse\\n}\\n\\n#JSFiddle td.left {\\n    width: 65%;\\n    vertical-align: top\\n}\\n\\n#JSFiddle td.right {\\n    width: 35%;\\n    vertical-align: top;\\n    text-align: right\\n}\\n\\n#JSFiddle td.left0 {\\n    width: 35%;\\n    vertical-align: top\\n}\\n\\n#JSFiddle td.right0 {\\n    width: 65%;\\n    vertical-align: top\\n}\\n\', escape=False)\n    pass\nresponse.write(\'\\n\\n\\n\\n\', escape=False)\nif request.args(1)==\'8\':\n    response.write(\'\\n#JSFiddle div.block p {\\n    line-height: 1.4em;\\n    margin: 0 0 .6em\\n}\\n\\n#JSFiddle div.block p.sub-title {\\n    font-size: 1.2em;\\n    font-weight: bold;\\n    margin: 0\\n}\\n\\n#JSFiddle div.block p.sub-where {\\n    font-size: 1.1em;\\n    margin: 0\\n}\\n\\n#JSFiddle div.block p.sub-dates {\\n    font-size: 1em;\\n    color: #555;\\n    margin: 0 0 .5em\\n}\\n\\n#JSFiddle div.block p.person {\\n    font-size: 4em;\\n    margin-bottom: 0;\\n    line-height: 1.2em;\\n    margin-top: -.2em;\\n}\\n\\n#JSFiddle div.block p.jobtitle {\\n    font-size: 1.2em;\\n    margin: 0\\n}\\n\\n#JSFiddle div.block p.location {\\n    font-size: 1em;\\n    color: #555;\\n    margin: 0\\n}\\n\\n#JSFiddle div.block span.company {\\n    color: #555;\\n    font-weight: bold\\n}\\n\\n#JSFiddle div.block p.title {\\n    font-size: 140%;\\n    font-weight: bold;\\n    margin: 0 0 .5em 0;\\n    padding: .2em .5em;\\n    text-transform: uppercase;\\n    border-bottom: .4em solid #ddd\\n}\\n\\n#JSFiddle div.blocks {\\n    margin-top: 1em\\n}\\n\\n#JSFiddle table.wide {\\n    width: 100%;\\n    border-collapse: collapse\\n}\\n\\n#JSFiddle td.left {\\n    width: 65%;\\n    vertical-align: top\\n}\\n\\n#JSFiddle td.right {\\n    width: 35%;\\n    vertical-align: top;\\n    text-align: right\\n}\\n\\n#JSFiddle td.left0 {\\n    width: 35%;\\n    vertical-align: top;\\n    padding: 0\\n}\\n\\n#JSFiddle td.right0 {\\n    width: 65%;\\n    vertical-align: top;\\n    border-left: .5em solid #ddd;\\n    padding-left: .8em\\n}\\n\', escape=False)\n    pass\nresponse.write(\'\\n\\n\\n\\n\', escape=False)\nif request.args(1)==\'9\':\n    response.write(\'\\n#JSFiddle div.block p {\\n    line-height: 1.4em;\\n    margin: .5em 0 .6em\\n}\\n\\n#JSFiddle div.block p.sub-title {\\n    font-size: 1.2em;\\n    font-weight: bold;\\n    margin: 0\\n}\\n\\n#JSFiddle div.block p.sub-where {\\n    font-size: 1.1em;\\n    margin: 0\\n}\\n\\n#JSFiddle div.block p.sub-dates {\\n    font-size: 1em;\\n    color: #555;\\n    margin: 0 0 .5em\\n}\\n\\n#JSFiddle div.block p.person {\\n    font-size: 4em;\\n    margin-bottom: 0;\\n    line-height: 1.2em;\\n    margin-top: -.2em;\\n}\\n\\n#JSFiddle div.block p.jobtitle {\\n    font-size: 1.2em;\\n    margin: 0\\n}\\n\\n#JSFiddle div.block p.location {\\n    font-size: 1em;\\n    color: #555;\\n    margin: 0\\n}\\n\\n#JSFiddle div.block span.company {\\n    color: #555;\\n    font-weight: bold\\n}\\n\\n#JSFiddle div.block p.title {\\n    font-size: 140%;\\n    font-weight: bold;\\n    margin: 0 0 .5em 0;\\n    padding: .2em .5em;\\n    text-transform: uppercase;\\n    background: #ddd\\n}\\n\\n#JSFiddle div.blocks {\\n    margin-top: 1em\\n}\\n\\n#JSFiddle table.wide {\\n    width: 100%;\\n    border-collapse: collapse\\n}\\n\\n#JSFiddle td.left {\\n    width: 65%;\\n    vertical-align: top\\n}\\n\\n#JSFiddle td.right {\\n    width: 35%;\\n    vertical-align: top;\\n    text-align: right\\n}\\n\\n#JSFiddle td.left0 {\\n    width: 35%;\\n    vertical-align: top;\\n    padding: 0\\n}\\n\\n#JSFiddle td.right0 {\\n    width: 65%;\\n    vertical-align: top;\\n    border-left: .5em solid #ddd;\\n    padding-left: .8em\\n}\\n\', escape=False)\n    pass\nresponse.write(\'\\n\\n\\n\\n\', escape=False)\nif request.args(1)==\'10\':\n    response.write(\'\\n#JSFiddle div.block p {\\n    line-height: 1.4em;\\n    margin: 0 0 .6em\\n}\\n\\n#JSFiddle div.block p.sub-title {\\n    font-size: 1.2em;\\n    font-weight: bold;\\n    margin: 0\\n}\\n\\n#JSFiddle div.block p.sub-where {\\n    font-size: 1.1em;\\n    margin: 0\\n}\\n\\n#JSFiddle div.block p.sub-dates {\\n    font-size: 1em;\\n    color: #555;\\n    margin: 0 0 .5em\\n}\\n\\n#JSFiddle div.block p.person {\\n    font-size: 4em;\\n    margin-bottom: 0;\\n    line-height: 1.2em;\\n    margin-top: -.2em;\\n}\\n\\n#JSFiddle div.block p.jobtitle {\\n    font-size: 1.2em;\\n    margin: 0\\n}\\n\\n#JSFiddle div.block p.location {\\n    font-size: 1em;\\n    color: #555;\\n    margin: 0\\n}\\n\\n#JSFiddle div.block span.company {\\n    color: #555;\\n    font-weight: bold\\n}\\n\\n#JSFiddle div.block p.title {\\n    font-size: 1.3em;\\n    font-weight: bold;\\n    margin: 0 0 .5em 0;\\n    padding: .1em .5em;\\n    text-transform: uppercase;\\n    background: #ddd;\\n    border-left: .2em solid #999;\\n    -moz-border-radius: .5em;\\n    -webkit-border-radius: .5em;\\n    border-radius: .5em;\\n    border-top-left-radius: .5em;\\n    border-top-right-radius: .5em;\\n    border-bottom-right-radius: .5em;\\n    border-bottom-left-radius: .5em\\n}\\n\\n#JSFiddle div.blocks {\\n    margin-top: 1em\\n}\\n\\n#JSFiddle div.child {\\n    border-bottom: .2em dotted #bbb;\\n    padding-bottom: 1em\\n}\\n\\n#JSFiddle div.last-child {\\n    border-bottom: none;\\n    padding-bottom: 0\\n}\\n\\n#JSFiddle div.block-inner {\\n    margin-left: 2em\\n}\\n\\n#JSFiddle table.wide {\\n    width: 100%;\\n    border-collapse: collapse\\n}\\n\\n#JSFiddle td.left {\\n    width: 65%;\\n    vertical-align: top\\n}\\n\\n#JSFiddle td.right {\\n    width: 35%;\\n    vertical-align: top;\\n    text-align: right\\n}\\n\', escape=False)\n    pass\nresponse.write(\'\\n\\n\\n\\n\', escape=False)\nif request.args(1)==\'11\':\n    response.write(\'\\n#JSFiddle div.block p {\\n    line-height: 1.4em;\\n    margin: 0 0 .6em\\n}\\n\\n#JSFiddle div.block p.sub-title {\\n    font-size: 1.2em;\\n    font-weight: bold;\\n    margin: 0\\n}\\n\\n#JSFiddle div.block p.sub-where {\\n    font-size: 1.1em;\\n    margin: 0\\n}\\n\\n#JSFiddle div.block p.sub-dates {\\n    font-size: 1em;\\n    color: #555;\\n    margin: 0 0 .5em\\n}\\n\\n#JSFiddle div.block p.person {\\n    font-size: 4em;\\n    margin-bottom: 0;\\n    line-height: 1.2em;\\n    margin-top: -.2em;\\n}\\n\\n#JSFiddle div.block p.jobtitle {\\n    font-size: 1.2em;\\n    margin: 0\\n}\\n\\n#JSFiddle div.block p.location {\\n    font-size: 1em;\\n    color: #555;\\n    margin: 0\\n}\\n\\n#JSFiddle div.block span.company {\\n    color: #555;\\n    font-weight: bold\\n}\\n\\n#JSFiddle div.block p.title {\\n    font-size: 1.3em;\\n    font-weight: bold;\\n    margin: 0 0 .5em 0;\\n    padding: .1em .3em;\\n    text-transform: uppercase;\\n    border-top: .2em solid #bbb\\n}\\n\\n#JSFiddle div.blocks {\\n    margin-top: 1em\\n}\\n\\n#JSFiddle div.child {\\n    padding-left: 1.5em;\\n    border-left: .2em dotted #bbb\\n}\\n\\n#JSFiddle div.last-child {\\n    padding-left: 1.5em;\\n    border-left: .2em dotted #bbb\\n}\\n\\n#JSFiddle div.circle {\\n    border: .1px solid #659AD3;\\n    background: #659AD3;\\n    width: 1.2em;\\n    height: 1.2em;\\n    float: left;\\n    margin-top: .3em;\\n    margin-left: -2.2em;\\n    -moz-border-radius: .6em;\\n    -webkit-border-radius: .6em;\\n    border-radius: .6em;\\n    border-top-left-radius: .6em;\\n    border-top-right-radius: .6em;\\n    border-bottom-right-radius: .6em;\\n    border-bottom-left-radius: .6em\\n}\\n\\n#JSFiddle div.block-inner {\\n    margin-left: 2em\\n}\\n\\n#JSFiddle table.wide {\\n    width: 100%;\\n    border-collapse: collapse\\n}\\n\\n#JSFiddle td.left {\\n    width: 65%;\\n    vertical-align: top\\n}\\n\\n#JSFiddle td.right {\\n    width: 35%;\\n    vertical-align: top;\\n    text-align: right\\n}\\n\', escape=False)\n    pass\nresponse.write(\'\\n\\n\\n\\n\', escape=False)\nif request.args(1)==\'12\':\n    response.write(\'\\n#JSFiddle div.block p {\\n    line-height: 1.4em;\\n    margin: 0 0 .6em\\n}\\n\\n#JSFiddle div.block p.sub-title {\\n    font-size: 1.2em;\\n    font-weight: bold;\\n    margin: 0\\n}\\n\\n#JSFiddle div.block p.sub-where {\\n    font-size: 1.1em;\\n    margin: 0\\n}\\n\\n#JSFiddle div.block p.sub-dates {\\n    font-size: 1em;\\n    color: #555;\\n    margin: 0 0 .5em\\n}\\n\\n#JSFiddle div.block p.person {\\n    font-size: 4em;\\n    margin-bottom: 0;\\n    line-height: 1.2em;\\n    margin-top: -.2em;\\n}\\n\\n#JSFiddle div.block p.jobtitle {\\n    font-size: 1.2em;\\n    margin: 0\\n}\\n\\n#JSFiddle div.block p.location {\\n    font-size: 1em;\\n    color: #555;\\n    margin: 0\\n}\\n\\n#JSFiddle div.block span.company {\\n    color: #555;\\n    font-weight: bold\\n}\\n\\n#JSFiddle div.block p.title {\\n    font-size: 1.3em;\\n    font-weight: bold;\\n    margin: 0 0 .5em 0;\\n    padding: .1em .3em;\\n    text-transform: uppercase;\\n    background: #eee\\n}\\n\\n#JSFiddle div.blocks {\\n    margin-top: 1em\\n}\\n\\n#JSFiddle div.block-inner {\\n    margin-left: 2em\\n}\\n\\n#JSFiddle td.sub-left {\\n    width: 35%;\\n    text-align: right;\\n    vertical-align: top;\\n    padding-right: 2em\\n}\\n\\n#JSFiddle td.sub-right {\\n    width: 65%;\\n    padding: .3em 0;\\n    vertical-align: top\\n}\\n\\n#JSFiddle div.child {\\n    border-bottom: .2em solid #bbb;\\n    padding-bottom: .7em\\n}\\n\\n#JSFiddle div.last-child {\\n    border: none;\\n    padding-bottom: 0\\n}\\n\\n#JSFiddle table.wide {\\n    width: 100%;\\n    border-collapse: collapse\\n}\\n\\n#JSFiddle td.left {\\n    width: 65%;\\n    vertical-align: top\\n}\\n\\n#JSFiddle td.right {\\n    width: 35%;\\n    vertical-align: top;\\n    text-align: right\\n}\\n\', escape=False)\n    pass\nresponse.write(\'\\n</style>\\n\', escape=False)\nfor i in f:\n    response.write(\'\\n\', escape=False)\n    if request.args(1)==\'2\':\n        response.write(\'\\n<div class="form" id="JSFiddle">\\n<table class="wide">\\n    <tbody>\\n        <tr>\\n            <td class="left">\\n                <div style="font-family: Roboto Condensed; margin-bottom: 1em;" class="block person" data-category="person">\\n                    <p class="person nam1" id="nam" style="text-align:left;">\', escape=False)\n        response.write(i.name)\n        response.write(\'</p>\\n                </div>\\n            </td>\\n            <td class="right">\\n                <div style="margin-bottom: 1em;" class="block contact" data-category="contact">\\n                    <div class="html-content e1" id="emai">\', escape=False)\n        response.write(i.email)\n        response.write(\'</div>\\n                        <br><span class="html-content ph1" id="ph">\', escape=False)\n        response.write(i.phone)\n        response.write(\'</span>\\n                </div>\\n            </td>\\n        </tr>\\n    </tbody>\\n</table>\\n<div class="blocks">\\n    <div style="margin-bottom: 1em;" class="block" data-category="text" data-children="" data-id="0">\\n        <p style="font-family: Roboto Condensed;" class="title">Summary</p>\\n        <div class="block-inner">\\n            <div class="html-content sum1" id="su1">\', escape=False)\n        response.write(i.summary)\n        response.write(\'</div>\\n        </div>\\n    </div>\\n    <div style="margin-bottom: 1em;" class="block" data-category="experience" data-children="2" data-id="1">\\n        <p style="font-family: Roboto Condensed;" class="title">Work Experience</p>\\n        <div class="block-inner">\\n            <div style="margin-bottom: 1em;" class="child" data-id="1c0" data-category="experience">\\n                <div class="html-content work1" id="wo1">\', escape=False)\n        response.write(i.works)\n        response.write(\'</div>\\n            </div>\\n            <div class="html-content"><b>Skill Set -</b><span class="html-content work2" id="wo2">\', escape=False)\n        response.write(i.skills)\n        response.write(\'</span></div>\\n        </div>\\n    </div>\\n    <div style="margin-bottom: 1em;" class="block" data-category="education" data-children="1" data-id="2">\\n        <p style="font-family: Roboto Condensed;" class="title">Education</p>\\n        <div class="block-inner">\\n            <div style="margin-bottom: 1em;" class="last-child" data-id="2c0" data-category="education">\\n                <div class="html-content edu1" id="ed1">\', escape=False)\n        response.write(i.education)\n        response.write(\'</div>\\n                <br>\\n                <div class="html-content">\\n                Your GPA -<b><span class="html-content edu2" id="ed2">\', escape=False)\n        response.write(i.gpa)\n        response.write(\'</span></b>\\n            </div>\\n        </div>\\n    </div>\\n    <div style="margin-bottom: 1em;" class="block" data-category="text" data-children="" data-id="3">\\n        <p style="font-family: Roboto Condensed;" class="title">Additional Information</p>\\n        <div class="block-inner">\\n            <div class="html-content add1" id="ad1">\', escape=False)\n        response.write(i.addinfo)\n        response.write(\'</div>\\n        </div>\\n    </div>\\n</div>\\n</div>\\n        <div id="buttons">\\n    <button onclick="return xepOnline.Formatter.Format(\\\'JSFiddle\\\', {render:\\\'download\\\'})">Generate PDF</button>\\n    <button onclick="return xepOnline.Formatter.Format(\\\'JSFiddle\\\', {render:\\\'embed\\\', mimeType:\\\'image/png\\\'})">PNG @120dpi</button>\\n                 \', escape=False)\n        more=i.id\n        response.write(\'\\n    \', escape=False)\n        response.write(A(\'Mark Resume\',callback=URL(\'default\', \'markresume\', args=[i.id]),target=\'change\', _class="btn btn-default"))\n        response.write(\'\\n    <br>\\n</div>\\n\\n\', escape=False)\n        if commenta:\n            response.write(\'\\n<h3>Comments</h3>\\n<br>\\n\', escape=False)\n            for i in commenta:\n                response.write(\'\\n    <b>\', escape=False)\n                response.write(db.auth_user[i.userid].first_name)\n                response.write(\' \', escape=False)\n                response.write(db.auth_user[i.userid].last_name)\n                response.write(\'</b> :\\n  \', escape=False)\n                response.write(i.body)\n                response.write(\' \', escape=False)\n                if i.userid == auth.user.id:\n                    response.write(\' : \', escape=False)\n                    response.write(A(\'Delete\',_href=URL(\'deletecomment\',args=[i.id,more])))\n                    response.write(\' \', escape=False)\n                    pass\n                response.write(\'<br> \\n\', escape=False)\n                pass\n            response.write(\'\\n\', escape=False)\n            pass\n        response.write(\'\\n<br>\\n<h3>Post A Comment: </h3>\\n\', escape=False)\n        response.write(form)\n        response.write(\'\\n\', escape=False)\n        pass\n    response.write(\'\\n\', escape=False)\n    pass\nresponse.write(\'\\n\', escape=False)\nelif request.args(1)==\'7\' or request.args(1)==\'8\' or request.args(1)==\'9\':\n    response.write(\'\\n<div class="form" id="JSFiddle">\\n<table class="wide">\\n        <tbody>\\n            <tr>\\n                <td class="left">\\n                    <div style="font-family: Roboto Condensed; margin-bottom: 1em;" class="block person" data-category="person">\\n                        <p class="person nam1" id="nam">\', escape=False)\n    response.write(i.name)\n    response.write(\'</p>\\n                    </div>\\n                </td>\\n                <td class="right">\\n                    <div style="margin-bottom: 1em;" class="block contact" data-category="contact">\\n                        <div class="html-content e1" id="emai">\', escape=False)\n    response.write(i.email)\n    response.write(\'</div>\\n                        <br>\\n                        <span class="html-content ph1" id="ph">\', escape=False)\n    response.write(i.phone)\n    response.write(\'</span>\\n                    </div>\\n                </td>\\n            </tr>\\n        </tbody>\\n    </table>\\n    <div class="blocks">\\n        <div style="margin-bottom: 1em;" class="block" data-category="text" data-children="" data-id="0">\\n            <table class="wide">\\n                <tbody>\\n                    <tr>\\n                        <td class="left0">\\n                            <p style="font-family: Roboto Condensed;" class="title">Summary</p>\\n                        </td>\\n                        <td class="right0">\\n                            <div class="block-inner">\\n                                <div class="html-content sum1" id="su1">\', escape=False)\n    response.write(i.summary)\n    response.write(\'</div>\\n                            </div>\\n                        </td>\\n                    </tr>\\n                </tbody>\\n            </table>\\n        </div>\\n        <div style="margin-bottom: 1em;" class="block" data-category="experience" data-children="2" data-id="1">\\n            <table class="wide">\\n                <tbody>\\n                    <tr>\\n                        <td class="left0">\\n                            <p style="font-family: Roboto Condensed;" class="title">Work Experience</p>\\n                        </td>\\n                        <td class="right0">\\n                            <div class="block-inner">\\n                                <div class="html-content work1" id="wo1">\', escape=False)\n    response.write(i.works)\n    response.write(\'</div>\\n                    <br>\\n                    <div class="html-content"><b>Skill Set -</b><span class="html-content work2" id="wo2">\', escape=False)\n    response.write(i.skills)\n    response.write(\'</span></div>\\n                            </div>\\n                        </td>\\n                    </tr>\\n                </tbody>\\n            </table>\\n        </div>\\n        <div style="margin-bottom: 1em;" class="block" data-category="education" data-children="1" data-id="2">\\n            <table class="wide">\\n                <tbody>\\n                    <tr>\\n                        <td class="left0">\\n                            <p style="font-family: Roboto Condensed;" class="title">Education</p>\\n                        </td>\\n                        <td class="right0">\\n                            <div class="block-inner">\\n                                <div class="html-content edu1" id="ed1">\', escape=False)\n    response.write(i.education)\n    response.write(\'</div>\\n                    <br>\\n                    <div class="html-content">Your GPA -<b><span class="html-content edu2" id="ed2">\', escape=False)\n    response.write(i.gpa)\n    response.write(\'</span></b></div>\\n                            </div>\\n                        </td>\\n                    </tr>\\n                </tbody>\\n            </table>\\n        </div>\\n        <div style="margin-bottom: 1em;" class="block" data-category="text" data-children="" data-id="3">\\n            <table class="wide">\\n                <tbody>\\n                    <tr>\\n                        <td class="left0">\\n                            <p style="font-family: Roboto Condensed;" class="title">Additional Information</p>\\n                        </td>\\n                        <td class="right0">\\n                            <div class="block-inner">\\n                                <div class="html-content add1" id="ad1">\', escape=False)\n    response.write(i.addinfo)\n    response.write(\'</div>\\n                            </div>\\n                        </td>\\n                    </tr>\\n                </tbody>\\n            </table>\\n        </div>\\n    </div>\\n</div>\\n\\n\\n\', escape=False)\nelse:\n    response.write(\'\\n\\n\\n<div class="form" id="JSFiddle">\\n    <table class="wide">\\n        <tbody>\\n            <tr>\\n                <td class="left">\\n                    <div class="block person" data-category="person" style="font-family: \\\'Roboto Condensed\\\'; margin-bottom: 1em;">\\n                        <p class="person nam1" id="nam">\', escape=False)\n    response.write(i.name)\n    response.write(\'</p>\\n                    </div>\\n                </td>\\n                <td class="right">\\n                    <div class="block contact" data-category="contact" style="margin-bottom: 1em;">\\n                        <div class="html-content e1" id="emai">\', escape=False)\n    response.write(i.email)\n    response.write(\'</div>\\n                        <br>\\n                        <span class="html-content ph1" id="ph">\', escape=False)\n    response.write(i.phone)\n    response.write(\'</span>\\n                    </div>\\n                </td>\\n            </tr>\\n        </tbody>\\n    </table>\\n    <div class="blocks">\\n        <div class="block" data-category="text" data-children="" data-id="0" style="margin-bottom: 1em;">\\n            <table class="wide title" cellspacing="0">\\n                <tbody>\\n                    <tr>\\n                        <td class="block-title">\\n                            <p class="title" style="font-family: \\\'Roboto Condensed\\\';">Summary</p>\\n                        </td>\\n                        <td class="block-title"></td>\\n                    </tr>\\n                </tbody>\\n            </table>\\n            <div class="block-inner">\\n                <div class="html-content sum1" id="su1">\', escape=False)\n    response.write(i.summary)\n    response.write(\'</div>\\n            </div>\\n        </div>\\n        <div class="block" data-category="experience" data-children="2" data-id="1" style="margin-bottom: 1em;">\\n            <table class="wide title" cellspacing="0">\\n                <tbody>\\n                    <tr>\\n                        <td class="block-title">\\n                            <p class="title" style="font-family: \\\'Roboto Condensed\\\';">Work Experience</p>\\n                        </td>\\n                        <td class="block-title"></td>\\n                    </tr>\\n                </tbody>\\n            </table>\\n            <div class="block-inner">\\n                <div class="child" data-id="1c0" data-category="experience" style="margin-bottom: 1em;">\\n                    <div class="html-content work1" id="wo1">\', escape=False)\n    response.write(i.works)\n    response.write(\'</div>\\n                    <br>\\n                    <div class="html-content"><b>Skill Set -</b><span class="html-content work2" id="wo2">\', escape=False)\n    response.write(i.skills)\n    response.write(\'</span></div>\\n                </div>\\n            </div>\\n        </div>\\n        <div class="block" data-category="education" data-children="1" data-id="2" style="margin-bottom: 1em;">\\n            <table class="wide title" cellspacing="0">\\n                <tbody>\\n                    <tr>\\n                        <td class="block-title">\\n                            <p class="title" style="font-family: \\\'Roboto Condensed\\\';">Education</p>\\n                        </td>\\n                        <td class="block-title"></td>\\n                    </tr>\\n                </tbody>\\n            </table>\\n            <div class="block-inner">\\n                <div class="last-child" data-id="2c0" data-category="education" style="margin-bottom: 1em;">\\n                    <div class="html-content edu1" id="ed1">\', escape=False)\n    response.write(i.education)\n    response.write(\'</div>\\n                    <br>\\n                    <div class="html-content">Your GPA -<b><span class="html-content edu2" id="ed2">\', escape=False)\n    response.write(i.gpa)\n    response.write(\'</span></b></div>\\n                </div>\\n            </div>\\n        </div>\\n        <div class="block" data-category="text" data-children="" data-id="3" style="margin-bottom: 1em;">\\n            <table class="wide title" cellspacing="0">\\n                <tbody>\\n                    <tr>\\n                        <td class="block-title">\\n                            <p class="title" style="font-family: \\\'Roboto Condensed\\\';">Additional Information</p>\\n                        </td>\\n                        <td class="block-title"></td>\\n                    </tr>\\n                </tbody>\\n            </table>\\n            <div class="block-inner">\\n                <div class="html-content add1" id="ad1">\', escape=False)\n    response.write(i.addinfo)\n    response.write(\'</div>\\n            </div>\\n        </div>\\n    </div>\\n</div>\\n    <div id="buttons">\\n    <button onclick="return xepOnline.Formatter.Format(\\\'JSFiddle\\\', {render:\\\'download\\\'})">Generate PDF</button>\\n    <button onclick="return xepOnline.Formatter.Format(\\\'JSFiddle\\\', {render:\\\'embed\\\', mimeType:\\\'image/png\\\'})">PNG @120dpi</button>\\n                 \', escape=False)\n    more=i.id\n    response.write(\'\\n    \', escape=False)\n    response.write(A(\'Mark Resume\',callback=URL(\'default\', \'markresume\', args=[i.id]),target=\'change\', _class="btn btn-default"))\n    response.write(\'\\n    <br>\\n</div>\\n\\n\', escape=False)\n    if commenta:\n        response.write(\'\\n<h3>Comments</h3>\\n<br>\\n\', escape=False)\n        for i in commenta:\n            response.write(\'\\n    <b>\', escape=False)\n            response.write(db.auth_user[i.userid].first_name)\n            response.write(\' \', escape=False)\n            response.write(db.auth_user[i.userid].last_name)\n            response.write(\'</b> :\\n  \', escape=False)\n            response.write(i.body)\n            response.write(\' \', escape=False)\n            if i.userid == auth.user.id:\n                response.write(\' : \', escape=False)\n                response.write(A(\'Delete\',_href=URL(\'deletecomment\',args=[i.id,more])))\n                response.write(\' \', escape=False)\n                pass\n            response.write(\'<br> \\n\', escape=False)\n            pass\n        response.write(\'\\n\', escape=False)\n        pass\n    response.write(\'\\n<br>\\n<h3>Post A Comment: </h3>\\n\', escape=False)\n    response.write(form)\n    response.write(\'\\n\', escape=False)\n    pass\nresponse.write(\'\\n\', escape=False)\npass\nresponse.write(\'\\n\\n<script src="https://code.jquery.com/jquery-1.12.0.min.js"></script>\\n<script src="http://www.cloudformatter.com/Resources/Pages/CSS2Pdf/Script/xepOnline.jqPlugin.js"></script>\\n\', escape=False)\nresponse.write(\'\\n        \', escape=False)\nresponse.write(\'\\n      </div>\\n\\n      \', escape=False)\nif right_sidebar_enabled:\n    response.write(\'\\n        <div class="col-md-3">\\n            \', escape=False)\n    response.write(\'\\n            <h3>Right Sidebar</h3>\\n            <p></p>\\n            \', escape=False)\n    response.write(\'\\n        </div>\\n      \', escape=False)\n    pass\nresponse.write(\'\\n\\n    </div>\\n\\n    \', escape=False)\nresponse.write(\' <!-- this is default footer -->\\n    \', escape=False)\nresponse.write(\'\\n    <!-- The javascript =============================== -->\\n    <script src="\', escape=False)\nresponse.write(URL(\'static\',\'js/bootstrap.min.js\'))\nresponse.write(\'"></script>\\n    <script src="\', escape=False)\nresponse.write(URL(\'static\',\'js/web2py-bootstrap3.js\'))\nresponse.write(\'"></script>\\n    \', escape=False)\nresponse.write(\'\\n    \', escape=False)\nif response.google_analytics_id:\n    response.write(\'\\n    <!-- Analytics ==================================== -->\\n    <script src="\', escape=False)\n    response.write(URL(\'static\',\'js/analytics.min.js\'))\n    response.write(\'"></script>\\n    <script type="text/javascript">\\n      analytics.initialize({\\n      \\\'Google Analytics\\\':{trackingId:\\\'\', escape=False)\n    response.write(response.google_analytics_id)\n    response.write("\'}\\n      });\\n    </script>\\n    ", escape=False)\n    pass\nresponse.write(\'\\n    <!-- Share ============================y============ -->\\n    <script src="\', escape=False)\nresponse.write(URL(\'static\',\'js/share.js\',vars=dict(static=URL(\'static\',\'images\'))))\nresponse.write(\'"></script>\\n  </body>\\n</html>\\n\', escape=False)'
p7
sS'snapshot'
p8
(dp9
S'exception'
p10
(dp11
S'__getslice__'
p12
S"<method-wrapper '__getslice__' of exceptions.SyntaxError object>"
p13
sS'text'
p14
S'"elif request.args(1)==\'7\' or request.args(1)==\'8\' or request.args(1)==\'9\':\\n"'
p15
sS'__str__'
p16
S"<method-wrapper '__str__' of exceptions.SyntaxError object>"
p17
sS'__reduce__'
p18
S'<built-in method __reduce__ of exceptions.SyntaxError object>'
p19
sS'__dict__'
p20
S'{}'
p21
sS'__sizeof__'
p22
S'<built-in method __sizeof__ of exceptions.SyntaxError object>'
p23
sS'__init__'
p24
S"<method-wrapper '__init__' of exceptions.SyntaxError object>"
p25
sS'__setattr__'
p26
S"<method-wrapper '__setattr__' of exceptions.SyntaxError object>"
p27
sS'__reduce_ex__'
p28
S'<built-in method __reduce_ex__ of exceptions.SyntaxError object>'
p29
sS'__new__'
p30
S'<built-in method __new__ of type object>'
p31
sS'__format__'
p32
S'<built-in method __format__ of exceptions.SyntaxError object>'
p33
sS'__class__'
p34
S"<type 'exceptions.SyntaxError'>"
p35
sS'filename'
p36
S"'/home/user/Desktop/web2py/applications/resume/views/default/moreresume1.html'"
p37
sS'lineno'
p38
S'175'
p39
sS'msg'
p40
S"'invalid syntax'"
p41
sS'__doc__'
p42
S"'Invalid syntax.'"
p43
sS'__getitem__'
p44
S"<method-wrapper '__getitem__' of exceptions.SyntaxError object>"
p45
sS'__setstate__'
p46
S'<built-in method __setstate__ of exceptions.SyntaxError object>'
p47
sS'__getattribute__'
p48
S"<method-wrapper '__getattribute__' of exceptions.SyntaxError object>"
p49
sS'print_file_and_line'
p50
S'None'
p51
sS'args'
p52
S'(\'invalid syntax\', (\'/home/user/Desktop/web2py/applications/resume/views/default/moreresume1.html\', 175, 4, "elif request.args(1)==\'7\' or request.args(1)==\'8\' or request.args(1)==\'9\':\\n"))'
p53
sS'__subclasshook__'
p54
S'<built-in method __subclasshook__ of type object>'
p55
sS'offset'
p56
S'4'
sS'__unicode__'
p57
S'<built-in method __unicode__ of exceptions.SyntaxError object>'
p58
sS'__delattr__'
p59
S"<method-wrapper '__delattr__' of exceptions.SyntaxError object>"
p60
sS'__repr__'
p61
S"<method-wrapper '__repr__' of exceptions.SyntaxError object>"
p62
sS'__hash__'
p63
S"<method-wrapper '__hash__' of exceptions.SyntaxError object>"
p64
ssS'evalue'
p65
S'invalid syntax (moreresume1.html, line 175)'
p66
sS'request'
p67
cgluon.html
XML_unpickle
p68
(S's\x17Z\x00\x00<div><table><tr><td style="font-weight:bold;vertical-align:top;">ajax</td><td style="vertical-align:top;">:</td><td><div>False</div></td></tr><tr><td style="font-weight:bold;vertical-align:top;">application</td><td style="vertical-align:top;">:</td><td><div>resume</div></td></tr><tr><td style="font-weight:bold;vertical-align:top;">args</td><td style="vertical-align:top;">:</td><td><div><table><tr><td><div>7</div></td></tr><tr><td><div>2</div></td></tr></table></div></td></tr><tr><td style="font-weight:bold;vertical-align:top;">cid</td><td style="vertical-align:top;">:</td><td><div>None</div></td></tr><tr><td style="font-weight:bold;vertical-align:top;">client</td><td style="vertical-align:top;">:</td><td><div>127.0.0.1</div></td></tr><tr><td style="font-weight:bold;vertical-align:top;">controller</td><td style="vertical-align:top;">:</td><td><div>default</div></td></tr><tr><td style="font-weight:bold;vertical-align:top;">cookies</td><td style="vertical-align:top;">:</td><td><div><table><tr><td style="font-weight:bold;vertical-align:top;">session_id_admin</td><td style="vertical-align:top;">:</td><td><div>127.0.0.1-04c2c65c-d9d8-46db-8421-bb25256da06b<table><tr><td style="font-weight:bold;vertical-align:top;">comment</td><td style="vertical-align:top;">:</td><td><div></div></td></tr><tr><td style="font-weight:bold;vertical-align:top;">domain</td><td style="vertical-align:top;">:</td><td><div></div></td></tr><tr><td style="font-weight:bold;vertical-align:top;">expires</td><td style="vertical-align:top;">:</td><td><div></div></td></tr><tr><td style="font-weight:bold;vertical-align:top;">httponly</td><td style="vertical-align:top;">:</td><td><div></div></td></tr><tr><td style="font-weight:bold;vertical-align:top;">max-age</td><td style="vertical-align:top;">:</td><td><div></div></td></tr><tr><td style="font-weight:bold;vertical-align:top;">path</td><td style="vertical-align:top;">:</td><td><div></div></td></tr><tr><td style="font-weight:bold;vertical-align:top;">secure</td><td style="vertical-align:top;">:</td><td><div></div></td></tr><tr><td style="font-weight:bold;vertical-align:top;">version</td><td style="vertical-align:top;">:</td><td><div></div></td></tr></table></div></td></tr><tr><td style="font-weight:bold;vertical-align:top;">session_id_resume</td><td style="vertical-align:top;">:</td><td><div>127.0.0.1-1ac518ef-328f-4f7c-a2ec-982cedfd4508<table><tr><td style="font-weight:bold;vertical-align:top;">comment</td><td style="vertical-align:top;">:</td><td><div></div></td></tr><tr><td style="font-weight:bold;vertical-align:top;">domain</td><td style="vertical-align:top;">:</td><td><div></div></td></tr><tr><td style="font-weight:bold;vertical-align:top;">expires</td><td style="vertical-align:top;">:</td><td><div></div></td></tr><tr><td style="font-weight:bold;vertical-align:top;">httponly</td><td style="vertical-align:top;">:</td><td><div></div></td></tr><tr><td style="font-weight:bold;vertical-align:top;">max-age</td><td style="vertical-align:top;">:</td><td><div></div></td></tr><tr><td style="font-weight:bold;vertical-align:top;">path</td><td style="vertical-align:top;">:</td><td><div></div></td></tr><tr><td style="font-weight:bold;vertical-align:top;">secure</td><td style="vertical-align:top;">:</td><td><div></div></td></tr><tr><td style="font-weight:bold;vertical-align:top;">version</td><td style="vertical-align:top;">:</td><td><div></div></td></tr></table></div></td></tr><tr><td style="font-weight:bold;vertical-align:top;">session_id_welcome</td><td style="vertical-align:top;">:</td><td><div>127.0.0.1-29c178b4-9eaa-4290-8f13-5b2196f3b79a<table><tr><td style="font-weight:bold;vertical-align:top;">comment</td><td style="vertical-align:top;">:</td><td><div></div></td></tr><tr><td style="font-weight:bold;vertical-align:top;">domain</td><td style="vertical-align:top;">:</td><td><div></div></td></tr><tr><td style="font-weight:bold;vertical-align:top;">expires</td><td style="vertical-align:top;">:</td><td><div></div></td></tr><tr><td style="font-weight:bold;vertical-align:top;">httponly</td><td style="vertical-align:top;">:</td><td><div></div></td></tr><tr><td style="font-weight:bold;vertical-align:top;">max-age</td><td style="vertical-align:top;">:</td><td><div></div></td></tr><tr><td style="font-weight:bold;vertical-align:top;">path</td><td style="vertical-align:top;">:</td><td><div></div></td></tr><tr><td style="font-weight:bold;vertical-align:top;">secure</td><td style="vertical-align:top;">:</td><td><div></div></td></tr><tr><td style="font-weight:bold;vertical-align:top;">version</td><td style="vertical-align:top;">:</td><td><div></div></td></tr></table></div></td></tr></table></div></td></tr><tr><td style="font-weight:bold;vertical-align:top;">env</td><td style="vertical-align:top;">:</td><td><div><table><tr><td style="font-weight:bold;vertical-align:top;">HTTP_ACCEPT</td><td style="vertical-align:top;">:</td><td><div>text/html,application/xhtml+xml,application/xml;q=0.9,*/*;q=0.8</div></td></tr><tr><td style="font-weight:bold;vertical-align:top;">HTTP_ACCEPT_ENCODING</td><td style="vertical-align:top;">:</td><td><div>gzip, deflate</div></td></tr><tr><td style="font-weight:bold;vertical-align:top;">HTTP_ACCEPT_LANGUAGE</td><td style="vertical-align:top;">:</td><td><div>en-US,en;q=0.5</div></td></tr><tr><td style="font-weight:bold;vertical-align:top;">HTTP_CONNECTION</td><td style="vertical-align:top;">:</td><td><div>keep-alive</div></td></tr><tr><td style="font-weight:bold;vertical-align:top;">HTTP_COOKIE</td><td style="vertical-align:top;">:</td><td><div>session_id_welcome=127.0.0.1-29c178b4-9eaa-4290-8f13-5b2196f3b79a; session_id_admin=127.0.0.1-04c2c65c-d9d8-46db-8421-bb25256da06b; session_id_resume=127.0.0.1-1ac518ef-328f-4f7c-a2ec-982cedfd4508</div></td></tr><tr><td style="font-weight:bold;vertical-align:top;">HTTP_HOST</td><td style="vertical-align:top;">:</td><td><div>127.0.0.1:8000</div></td></tr><tr><td style="font-weight:bold;vertical-align:top;">HTTP_REFERER</td><td style="vertical-align:top;">:</td><td><div>http://127.0.0.1:8000/resume/default/templates1/7</div></td></tr><tr><td style="font-weight:bold;vertical-align:top;">HTTP_USER_AGENT</td><td style="vertical-align:top;">:</td><td><div>Mozilla/5.0 (X11; Fedora; Linux x86_64; rv:38.0) Gecko/20100101 Firefox/38.0</div></td></tr><tr><td style="font-weight:bold;vertical-align:top;">PATH_INFO</td><td style="vertical-align:top;">:</td><td><div>/resume/default/moreresume1/7/2</div></td></tr><tr><td style="font-weight:bold;vertical-align:top;">QUERY_STRING</td><td style="vertical-align:top;">:</td><td><div></div></td></tr><tr><td style="font-weight:bold;vertical-align:top;">REMOTE_ADDR</td><td style="vertical-align:top;">:</td><td><div>127.0.0.1</div></td></tr><tr><td style="font-weight:bold;vertical-align:top;">REMOTE_PORT</td><td style="vertical-align:top;">:</td><td><div>59570</div></td></tr><tr><td style="font-weight:bold;vertical-align:top;">REQUEST_METHOD</td><td style="vertical-align:top;">:</td><td><div>GET</div></td></tr><tr><td style="font-weight:bold;vertical-align:top;">SCRIPT_NAME</td><td style="vertical-align:top;">:</td><td><div></div></td></tr><tr><td style="font-weight:bold;vertical-align:top;">SERVER_NAME</td><td style="vertical-align:top;">:</td><td><div>localhost.localdomain</div></td></tr><tr><td style="font-weight:bold;vertical-align:top;">SERVER_PORT</td><td style="vertical-align:top;">:</td><td><div>8000</div></td></tr><tr><td style="font-weight:bold;vertical-align:top;">SERVER_PROTOCOL</td><td style="vertical-align:top;">:</td><td><div>HTTP/1.1</div></td></tr><tr><td style="font-weight:bold;vertical-align:top;">SERVER_SOFTWARE</td><td style="vertical-align:top;">:</td><td><div>Rocket 1.2.6</div></td></tr><tr><td style="font-weight:bold;vertical-align:top;">app_folders</td><td style="vertical-align:top;">:</td><td><div>set([&#x27;/home/user/Desktop/web2py/applications/welcome/&#x27;, &#x27;/home/user/Desktop/web2py/applications/admin/&#x27;, &#x27;/home/user/Desktop/web2py/applications/resume/&#x27;])</div></td></tr><tr><td style="font-weight:bold;vertical-align:top;">applications_parent</td><td style="vertical-align:top;">:</td><td><div>/home/user/Desktop/web2py</div></td></tr><tr><td style="font-weight:bold;vertical-align:top;">cmd_args</td><td style="vertical-align:top;">:</td><td><div><table></table></div></td></tr><tr><td style="font-weight:bold;vertical-align:top;">cmd_options</td><td style="vertical-align:top;">:</td><td><div>&lt;Values at 0x1d11290: {&#x27;verbose&#x27;: False, &#x27;ip&#x27;: &#x27;127.0.0.1&#x27;, &#x27;debuglevel&#x27;: 30, &#x27;with_scheduler&#x27;: False, &#x27;shutdown_timeout&#x27;: 5, &#x27;taskbar&#x27;: False, &#x27;with_coverage&#x27;: False, &#x27;pid_filename&#x27;: &#x27;httpserver.pid&#x27;, &#x27;maxthreads&#x27;: None, &#x27;softcron&#x27;: False, &#x27;server_name&#x27;: &#x27;localhost.localdomain&#x27;, &#x27;bpython&#x27;: False, &#x27;nogui&#x27;: False, &#x27;port&#x27;: 8000, &#x27;print_errors&#x27;: False, &#x27;extcron&#x27;: False, &#x27;runcron&#x27;: False, &#x27;run_system_tests&#x27;: False, &#x27;test&#x27;: None, &#x27;folder&#x27;: &#x27;/home/user/Desktop/web2py&#x27;, &#x27;config&#x27;: &#x27;&#x27;, &#x27;minthreads&#x27;: None, &#x27;shell&#x27;: None, &#x27;run&#x27;: &#x27;&#x27;, &#x27;log_filename&#x27;: &#x27;httpserver.log&#x27;, &#x27;profiler_dir&#x27;: None, &#x27;args&#x27;: [&#x27;&#x27;], &#x27;socket_timeout&#x27;: 5, &#x27;ssl_ca_certificate&#x27;: None, &#x27;scheduler&#x27;: None, &#x27;interfaces&#x27;: None, &#x27;ssl_private_key&#x27;: &#x27;&#x27;, &#x27;gae&#x27;: None, &#x27;password&#x27;: &#x27;******&#x27;, &#x27;request_queue_size&#x27;: 5, &#x27;ssl_certificate&#x27;: &#x27;&#x27;, &#x27;cronjob&#x27;: False, &#x27;numthreads&#x27;: None, &#x27;quiet&#x27;: False, &#x27;import_models&#x27;: False, &#x27;timeout&#x27;: 10, &#x27;plain&#x27;: False, &#x27;nobanner&#x27;: False}&gt;</div></td></tr><tr><td style="font-weight:bold;vertical-align:top;">db_sessions</td><td style="vertical-align:top;">:</td><td><div>set([])</div></td></tr><tr><td style="font-weight:bold;vertical-align:top;">debugging</td><td style="vertical-align:top;">:</td><td><div>True</div></td></tr><tr><td style="font-weight:bold;vertical-align:top;">gluon_parent</td><td style="vertical-align:top;">:</td><td><div>/home/user/Desktop/web2py</div></td></tr><tr><td style="font-weight:bold;vertical-align:top;">http_accept</td><td style="vertical-align:top;">:</td><td><div>text/html,application/xhtml+xml,application/xml;q=0.9,*/*;q=0.8</div></td></tr><tr><td style="font-weight:bold;vertical-align:top;">http_accept_encoding</td><td style="vertical-align:top;">:</td><td><div>gzip, deflate</div></td></tr><tr><td style="font-weight:bold;vertical-align:top;">http_accept_language</td><td style="vertical-align:top;">:</td><td><div>en-US,en;q=0.5</div></td></tr><tr><td style="font-weight:bold;vertical-align:top;">http_connection</td><td style="vertical-align:top;">:</td><td><div>keep-alive</div></td></tr><tr><td style="font-weight:bold;vertical-align:top;">http_cookie</td><td style="vertical-align:top;">:</td><td><div>session_id_welcome=127.0.0.1-29c178b4-9eaa-4290-8f13-5b2196f3b79a; session_id_admin=127.0.0.1-04c2c65c-d9d8-46db-8421-bb25256da06b; session_id_resume=127.0.0.1-1ac518ef-328f-4f7c-a2ec-982cedfd4508</div></td></tr><tr><td style="font-weight:bold;vertical-align:top;">http_host</td><td style="vertical-align:top;">:</td><td><div>127.0.0.1:8000</div></td></tr><tr><td style="font-weight:bold;vertical-align:top;">http_referer</td><td style="vertical-align:top;">:</td><td><div>http://127.0.0.1:8000/resume/default/templates1/7</div></td></tr><tr><td style="font-weight:bold;vertical-align:top;">http_user_agent</td><td style="vertical-align:top;">:</td><td><div>Mozilla/5.0 (X11; Fedora; Linux x86_64; rv:38.0) Gecko/20100101 Firefox/38.0</div></td></tr><tr><td style="font-weight:bold;vertical-align:top;">is_jython</td><td style="vertical-align:top;">:</td><td><div>False</div></td></tr><tr><td style="font-weight:bold;vertical-align:top;">is_pypy</td><td style="vertical-align:top;">:</td><td><div>False</div></td></tr><tr><td style="font-weight:bold;vertical-align:top;">is_source</td><td style="vertical-align:top;">:</td><td><div>True</div></td></tr><tr><td style="font-weight:bold;vertical-align:top;">local_hosts</td><td style="vertical-align:top;">:</td><td><div><table><tr><td><div>::1</div></td></tr><tr><td><div>::ffff:127.0.0.1</div></td></tr><tr><td><div>127.0.0.1</div></td></tr><tr><td><div>localhost.localdomain</div></td></tr></table></div></td></tr><tr><td style="font-weight:bold;vertical-align:top;">path_info</td><td style="vertical-align:top;">:</td><td><div>/resume/default/moreresume1/7/2</div></td></tr><tr><td style="font-weight:bold;vertical-align:top;">query_string</td><td style="vertical-align:top;">:</td><td><div></div></td></tr><tr><td style="font-weight:bold;vertical-align:top;">remote_addr</td><td style="vertical-align:top;">:</td><td><div>127.0.0.1</div></td></tr><tr><td style="font-weight:bold;vertical-align:top;">remote_port</td><td style="vertical-align:top;">:</td><td><div>59570</div></td></tr><tr><td style="font-weight:bold;vertical-align:top;">request_method</td><td style="vertical-align:top;">:</td><td><div>GET</div></td></tr><tr><td style="font-weight:bold;vertical-align:top;">request_uri</td><td style="vertical-align:top;">:</td><td><div>/resume/default/moreresume1/7/2</div></td></tr><tr><td style="font-weight:bold;vertical-align:top;">script_name</td><td style="vertical-align:top;">:</td><td><div></div></td></tr><tr><td style="font-weight:bold;vertical-align:top;">server_name</td><td style="vertical-align:top;">:</td><td><div>localhost.localdomain</div></td></tr><tr><td style="font-weight:bold;vertical-align:top;">server_port</td><td style="vertical-align:top;">:</td><td><div>8000</div></td></tr><tr><td style="font-weight:bold;vertical-align:top;">server_protocol</td><td style="vertical-align:top;">:</td><td><div>HTTP/1.1</div></td></tr><tr><td style="font-weight:bold;vertical-align:top;">server_software</td><td style="vertical-align:top;">:</td><td><div>Rocket 1.2.6</div></td></tr><tr><td style="font-weight:bold;vertical-align:top;">web2py_path</td><td style="vertical-align:top;">:</td><td><div>/home/user/Desktop/web2py</div></td></tr><tr><td style="font-weight:bold;vertical-align:top;">web2py_version</td><td style="vertical-align:top;">:</td><td><div>2.14.5-stable+timestamp.2016.04.14.03.26.16</div></td></tr><tr><td style="font-weight:bold;vertical-align:top;">wsgi.errors</td><td style="vertical-align:top;">:</td><td><div>&lt;open file &#x27;&lt;stderr&gt;&#x27;, mode &#x27;w&#x27; at 0x7f14fefd91e0&gt;</div></td></tr><tr><td style="font-weight:bold;vertical-align:top;">wsgi.file_wrapper</td><td style="vertical-align:top;">:</td><td><div>&lt;class wsgiref.util.FileWrapper at 0x1cb13f8&gt;</div></td></tr><tr><td style="font-weight:bold;vertical-align:top;">wsgi.input</td><td style="vertical-align:top;">:</td><td><div>&lt;socket._fileobject object at 0x7f14d418bad0&gt;</div></td></tr><tr><td style="font-weight:bold;vertical-align:top;">wsgi.multiprocess</td><td style="vertical-align:top;">:</td><td><div>False</div></td></tr><tr><td style="font-weight:bold;vertical-align:top;">wsgi.multithread</td><td style="vertical-align:top;">:</td><td><div>True</div></td></tr><tr><td style="font-weight:bold;vertical-align:top;">wsgi.run_once</td><td style="vertical-align:top;">:</td><td><div>False</div></td></tr><tr><td style="font-weight:bold;vertical-align:top;">wsgi.url_scheme</td><td style="vertical-align:top;">:</td><td><div>http</div></td></tr><tr><td style="font-weight:bold;vertical-align:top;">wsgi.version</td><td style="vertical-align:top;">:</td><td><div><table><tr><td><div>1</div></td></tr><tr><td><div>0</div></td></tr></table></div></td></tr><tr><td style="font-weight:bold;vertical-align:top;">wsgi_errors</td><td style="vertical-align:top;">:</td><td><div>&lt;open file &#x27;&lt;stderr&gt;&#x27;, mode &#x27;w&#x27; at 0x7f14fefd91e0&gt;</div></td></tr><tr><td style="font-weight:bold;vertical-align:top;">wsgi_file_wrapper</td><td style="vertical-align:top;">:</td><td><div>&lt;class wsgiref.util.FileWrapper at 0x1cb13f8&gt;</div></td></tr><tr><td style="font-weight:bold;vertical-align:top;">wsgi_input</td><td style="vertical-align:top;">:</td><td><div>&lt;socket._fileobject object at 0x7f14d418bad0&gt;</div></td></tr><tr><td style="font-weight:bold;vertical-align:top;">wsgi_multiprocess</td><td style="vertical-align:top;">:</td><td><div>False</div></td></tr><tr><td style="font-weight:bold;vertical-align:top;">wsgi_multithread</td><td style="vertical-align:top;">:</td><td><div>True</div></td></tr><tr><td style="font-weight:bold;vertical-align:top;">wsgi_run_once</td><td style="vertical-align:top;">:</td><td><div>False</div></td></tr><tr><td style="font-weight:bold;vertical-align:top;">wsgi_url_scheme</td><td style="vertical-align:top;">:</td><td><div>http</div></td></tr><tr><td style="font-weight:bold;vertical-align:top;">wsgi_version</td><td style="vertical-align:top;">:</td><td><div><table><tr><td><div>1</div></td></tr><tr><td><div>0</div></td></tr></table></div></td></tr></table></div></td></tr><tr><td style="font-weight:bold;vertical-align:top;">extension</td><td style="vertical-align:top;">:</td><td><div>html</div></td></tr><tr><td style="font-weight:bold;vertical-align:top;">folder</td><td style="vertical-align:top;">:</td><td><div>/home/user/Desktop/web2py/applications/resume/</div></td></tr><tr><td style="font-weight:bold;vertical-align:top;">function</td><td style="vertical-align:top;">:</td><td><div>moreresume1</div></td></tr><tr><td style="font-weight:bold;vertical-align:top;">global_settings</td><td style="vertical-align:top;">:</td><td><div><table><tr><td style="font-weight:bold;vertical-align:top;">app_folders</td><td style="vertical-align:top;">:</td><td><div>set([&#x27;/home/user/Desktop/web2py/applications/welcome/&#x27;, &#x27;/home/user/Desktop/web2py/applications/admin/&#x27;, &#x27;/home/user/Desktop/web2py/applications/resume/&#x27;])</div></td></tr><tr><td style="font-weight:bold;vertical-align:top;">applications_parent</td><td style="vertical-align:top;">:</td><td><div>/home/user/Desktop/web2py</div></td></tr><tr><td style="font-weight:bold;vertical-align:top;">cmd_args</td><td style="vertical-align:top;">:</td><td><div><table></table></div></td></tr><tr><td style="font-weight:bold;vertical-align:top;">cmd_options</td><td style="vertical-align:top;">:</td><td><div>&lt;Values at 0x1d11290: {&#x27;verbose&#x27;: False, &#x27;ip&#x27;: &#x27;127.0.0.1&#x27;, &#x27;debuglevel&#x27;: 30, &#x27;with_scheduler&#x27;: False, &#x27;shutdown_timeout&#x27;: 5, &#x27;taskbar&#x27;: False, &#x27;with_coverage&#x27;: False, &#x27;pid_filename&#x27;: &#x27;httpserver.pid&#x27;, &#x27;maxthreads&#x27;: None, &#x27;softcron&#x27;: False, &#x27;server_name&#x27;: &#x27;localhost.localdomain&#x27;, &#x27;bpython&#x27;: False, &#x27;nogui&#x27;: False, &#x27;port&#x27;: 8000, &#x27;print_errors&#x27;: False, &#x27;extcron&#x27;: False, &#x27;runcron&#x27;: False, &#x27;run_system_tests&#x27;: False, &#x27;test&#x27;: None, &#x27;folder&#x27;: &#x27;/home/user/Desktop/web2py&#x27;, &#x27;config&#x27;: &#x27;&#x27;, &#x27;minthreads&#x27;: None, &#x27;shell&#x27;: None, &#x27;run&#x27;: &#x27;&#x27;, &#x27;log_filename&#x27;: &#x27;httpserver.log&#x27;, &#x27;profiler_dir&#x27;: None, &#x27;args&#x27;: [&#x27;&#x27;], &#x27;socket_timeout&#x27;: 5, &#x27;ssl_ca_certificate&#x27;: None, &#x27;scheduler&#x27;: None, &#x27;interfaces&#x27;: None, &#x27;ssl_private_key&#x27;: &#x27;&#x27;, &#x27;gae&#x27;: None, &#x27;password&#x27;: &#x27;******&#x27;, &#x27;request_queue_size&#x27;: 5, &#x27;ssl_certificate&#x27;: &#x27;&#x27;, &#x27;cronjob&#x27;: False, &#x27;numthreads&#x27;: None, &#x27;quiet&#x27;: False, &#x27;import_models&#x27;: False, &#x27;timeout&#x27;: 10, &#x27;plain&#x27;: False, &#x27;nobanner&#x27;: False}&gt;</div></td></tr><tr><td style="font-weight:bold;vertical-align:top;">db_sessions</td><td style="vertical-align:top;">:</td><td><div>set([])</div></td></tr><tr><td style="font-weight:bold;vertical-align:top;">debugging</td><td style="vertical-align:top;">:</td><td><div>True</div></td></tr><tr><td style="font-weight:bold;vertical-align:top;">gluon_parent</td><td style="vertical-align:top;">:</td><td><div>/home/user/Desktop/web2py</div></td></tr><tr><td style="font-weight:bold;vertical-align:top;">is_jython</td><td style="vertical-align:top;">:</td><td><div>False</div></td></tr><tr><td style="font-weight:bold;vertical-align:top;">is_pypy</td><td style="vertical-align:top;">:</td><td><div>False</div></td></tr><tr><td style="font-weight:bold;vertical-align:top;">is_source</td><td style="vertical-align:top;">:</td><td><div>True</div></td></tr><tr><td style="font-weight:bold;vertical-align:top;">local_hosts</td><td style="vertical-align:top;">:</td><td><div><table><tr><td><div>::1</div></td></tr><tr><td><div>::ffff:127.0.0.1</div></td></tr><tr><td><div>127.0.0.1</div></td></tr><tr><td><div>localhost.localdomain</div></td></tr></table></div></td></tr><tr><td style="font-weight:bold;vertical-align:top;">web2py_version</td><td style="vertical-align:top;">:</td><td><div>2.14.5-stable+timestamp.2016.04.14.03.26.16</div></td></tr></table></div></td></tr><tr><td style="font-weight:bold;vertical-align:top;">is_https</td><td style="vertical-align:top;">:</td><td><div>False</div></td></tr><tr><td style="font-weight:bold;vertical-align:top;">is_local</td><td style="vertical-align:top;">:</td><td><div>True</div></td></tr><tr><td style="font-weight:bold;vertical-align:top;">is_restful</td><td style="vertical-align:top;">:</td><td><div>False</div></td></tr><tr><td style="font-weight:bold;vertical-align:top;">is_scheduler</td><td style="vertical-align:top;">:</td><td><div>False</div></td></tr><tr><td style="font-weight:bold;vertical-align:top;">is_shell</td><td style="vertical-align:top;">:</td><td><div>False</div></td></tr><tr><td style="font-weight:bold;vertical-align:top;">now</td><td style="vertical-align:top;">:</td><td><div>datetime.datetime(2016, 4, 19, 9, 57, 10, 824542)</div></td></tr><tr><td style="font-weight:bold;vertical-align:top;">raw_args</td><td style="vertical-align:top;">:</td><td><div>7/2</div></td></tr><tr><td style="font-weight:bold;vertical-align:top;">raw_extension</td><td style="vertical-align:top;">:</td><td><div>None</div></td></tr><tr><td style="font-weight:bold;vertical-align:top;">url</td><td style="vertical-align:top;">:</td><td><div>/resume/default/moreresume1/7/2</div></td></tr><tr><td style="font-weight:bold;vertical-align:top;">utcnow</td><td style="vertical-align:top;">:</td><td><div>datetime.datetime(2016, 4, 19, 4, 27, 10, 824572)</div></td></tr><tr><td style="font-weight:bold;vertical-align:top;">wsgi</td><td style="vertical-align:top;">:</td><td><div>&lt;gluon.main.LazyWSGI object at 0x7f14ec72dd50&gt;</div></td></tr></table></div>'
tRp69
sS'frames'
p70
(lp71
(dp72
S'file'
p73
S'/home/user/Desktop/web2py/gluon/restricted.py'
p74
sS'dump'
p75
(dp76
S'code'
p77
S'\'response.write(\\\'<!DOCTYPE html>\\\\n<!--[if (gt IE ..."></script>\\\\n  </body>\\\\n</html>\\\\n\\\', escape=False)\''
p78
sS'layer'
p79
S"'/home/user/Desktop/web2py/applications/resume/views/default/moreresume1.html'"
p80
sS'global compile2'
p81
S'<function compile2>'
p82
sS'ccode'
p83
S'undefined'
p84
ssS'lnum'
p85
I226
sS'lines'
p86
(dp87
I224
S'            ccode = code'
p88
sI225
S'        else:'
p89
sI226
S'            ccode = compile2(code, layer)'
p90
sI227
S'        exec ccode in environment'
p91
sI228
S'    except HTTP:'
p92
sI229
S'        raise'
p93
sI230
S'    except RestrictedError:'
p94
sI221
S"    environment['__name__'] = '__restricted__'"
p95
sI222
S'    try:'
p96
sI223
S'        if isinstance(code, types.CodeType):'
p97
ssS'call'
p98
S'(code=\'response.write(\\\'<!DOCTYPE html>\\\\n<!--[if (gt IE ..."></script>\\\\n  </body>\\\\n</html>\\\\n\\\', escape=False)\', environment={\'A\': <class \'gluon.html.A\'>, \'ANY_OF\': <class \'gluon.validators.ANY_OF\'>, \'ASSIGNJS\': <function ASSIGNJS>, \'AppConfig\': <function AppConfig>, \'Auth\': <class \'gluon.tools.Auth\'>, \'B\': <class \'gluon.html.B\'>, \'BEAUTIFY\': <class \'gluon.html.BEAUTIFY\'>, \'BODY\': <class \'gluon.html.BODY\'>, \'BR\': <class \'gluon.html.BR\'>, \'BUTTON\': <class \'gluon.html.BUTTON\'>, ...}, layer=\'/home/user/Desktop/web2py/applications/resume/views/default/moreresume1.html\')'
p99
sS'func'
p100
S'restricted'
p101
sa(dp102
g73
S'/home/user/Desktop/web2py/gluon/restricted.py'
p103
sg75
(dp104
S'builtincompile'
p105
S'<built-in function compile>'
p106
sS'code'
p107
S'\'response.write(\\\'<!DOCTYPE html>\\\\n<!--[if (gt IE ..."></script>\\\\n  </body>\\\\n</html>\\\\n\\\', escape=False)\''
p108
sS'code.rstrip'
p109
S'<built-in method rstrip of str object>'
p110
sS').replace'
p111
g84
sS'layer'
p112
S"'/home/user/Desktop/web2py/applications/resume/views/default/moreresume1.html'"
p113
ssg85
I209
sg86
(dp114
I204
S'def compile2(code, layer):'
p115
sI205
S'    """'
p116
sI206
S"    The ``+'\\\\n'`` is necessary else compile fails when code ends in a comment."
p117
sI207
S'    """'
p118
sI208
S''
sI209
S"    return compile(code.rstrip().replace('\\r\\n', '\\n') + '\\n', layer, 'exec')"
p119
sI210
S''
sI211
S''
sI212
S"def restricted(code, environment=None, layer='Unknown'):"
p120
sI213
S'    """'
p121
ssg98
S'(code=\'response.write(\\\'<!DOCTYPE html>\\\\n<!--[if (gt IE ..."></script>\\\\n  </body>\\\\n</html>\\\\n\\\', escape=False)\', layer=\'/home/user/Desktop/web2py/applications/resume/views/default/moreresume1.html\')'
p122
sg100
S'compile2'
p123
sasS'pyver'
p124
S'Python 2.7.5: /usr/bin/python (prefix: /usr)'
p125
sS'session'
p126
g68
(S's.\x0e\x00\x00<div><table><tr><td style="font-weight:bold;vertical-align:top;">auth</td><td style="vertical-align:top;">:</td><td><div><table><tr><td style="font-weight:bold;vertical-align:top;">expiration</td><td style="vertical-align:top;">:</td><td><div>3600</div></td></tr><tr><td style="font-weight:bold;vertical-align:top;">hmac_key</td><td style="vertical-align:top;">:</td><td><div>798d2af6-ede9-48e0-95a5-96c21faf4ad5</div></td></tr><tr><td style="font-weight:bold;vertical-align:top;">last_visit</td><td style="vertical-align:top;">:</td><td><div>datetime.datetime(2016, 4, 19, 9, 55, 13, 582414)</div></td></tr><tr><td style="font-weight:bold;vertical-align:top;">remember_me</td><td style="vertical-align:top;">:</td><td><div>False</div></td></tr><tr><td style="font-weight:bold;vertical-align:top;">user</td><td style="vertical-align:top;">:</td><td><div><table><tr><td style="font-weight:bold;vertical-align:top;">Account_Type</td><td style="vertical-align:top;">:</td><td><div>None</div></td></tr><tr><td style="font-weight:bold;vertical-align:top;">City</td><td style="vertical-align:top;">:</td><td><div>None</div></td></tr><tr><td style="font-weight:bold;vertical-align:top;">Company_Location</td><td style="vertical-align:top;">:</td><td><div>None</div></td></tr><tr><td style="font-weight:bold;vertical-align:top;">Company_Name</td><td style="vertical-align:top;">:</td><td><div>None</div></td></tr><tr><td style="font-weight:bold;vertical-align:top;">Contact_Number</td><td style="vertical-align:top;">:</td><td><div>None</div></td></tr><tr><td style="font-weight:bold;vertical-align:top;">Country</td><td style="vertical-align:top;">:</td><td><div>None</div></td></tr><tr><td style="font-weight:bold;vertical-align:top;">Date_of_Birth</td><td style="vertical-align:top;">:</td><td><div>None</div></td></tr><tr><td style="font-weight:bold;vertical-align:top;">Nationality</td><td style="vertical-align:top;">:</td><td><div>None</div></td></tr><tr><td style="font-weight:bold;vertical-align:top;">Profile_Photo</td><td style="vertical-align:top;">:</td><td><div>None</div></td></tr><tr><td style="font-weight:bold;vertical-align:top;">email</td><td style="vertical-align:top;">:</td><td><div>sai@gmail.com</div></td></tr><tr><td style="font-weight:bold;vertical-align:top;">first_name</td><td style="vertical-align:top;">:</td><td><div>sai</div></td></tr><tr><td style="font-weight:bold;vertical-align:top;">gender</td><td style="vertical-align:top;">:</td><td><div>None</div></td></tr><tr><td style="font-weight:bold;vertical-align:top;">id</td><td style="vertical-align:top;">:</td><td><div>1L</div></td></tr><tr><td style="font-weight:bold;vertical-align:top;">last_name</td><td style="vertical-align:top;">:</td><td><div>teja</div></td></tr><tr><td style="font-weight:bold;vertical-align:top;">registration_id</td><td style="vertical-align:top;">:</td><td><div></div></td></tr><tr><td style="font-weight:bold;vertical-align:top;">registration_key</td><td style="vertical-align:top;">:</td><td><div></div></td></tr><tr><td style="font-weight:bold;vertical-align:top;">reset_password_key</td><td style="vertical-align:top;">:</td><td><div></div></td></tr></table></div></td></tr><tr><td style="font-weight:bold;vertical-align:top;">user_groups</td><td style="vertical-align:top;">:</td><td><div><table><tr><td style="font-weight:bold;vertical-align:top;">1</td><td style="vertical-align:top;">:</td><td><div>user_1</div></td></tr></table></div></td></tr></table></div></td></tr><tr><td style="font-weight:bold;vertical-align:top;">flash</td><td style="vertical-align:top;">:</td><td><div>None</div></td></tr></table></div>'
tRp127
sS'etype'
p128
S"<type 'exceptions.SyntaxError'>"
p129
sS'date'
p130
S'Tue Apr 19 09:57:10 2016'
p131
sS'response'
p132
g68
(S's\xfd>\x00\x00<div><table><tr><td style="font-weight:bold;vertical-align:top;">body</td><td style="vertical-align:top;">:</td><td><div>&lt;cStringIO.StringO object at 0x7f14cc4e9bc8&gt;</div></td></tr><tr><td style="font-weight:bold;vertical-align:top;">cookies</td><td style="vertical-align:top;">:</td><td><div><table><tr><td style="font-weight:bold;vertical-align:top;">session_id_resume</td><td style="vertical-align:top;">:</td><td><div>127.0.0.1-1ac518ef-328f-4f7c-a2ec-982cedfd4508<table><tr><td style="font-weight:bold;vertical-align:top;">comment</td><td style="vertical-align:top;">:</td><td><div></div></td></tr><tr><td style="font-weight:bold;vertical-align:top;">domain</td><td style="vertical-align:top;">:</td><td><div></div></td></tr><tr><td style="font-weight:bold;vertical-align:top;">expires</td><td style="vertical-align:top;">:</td><td><div></div></td></tr><tr><td style="font-weight:bold;vertical-align:top;">httponly</td><td style="vertical-align:top;">:</td><td><div></div></td></tr><tr><td style="font-weight:bold;vertical-align:top;">max-age</td><td style="vertical-align:top;">:</td><td><div></div></td></tr><tr><td style="font-weight:bold;vertical-align:top;">path</td><td style="vertical-align:top;">:</td><td><div>/</div></td></tr><tr><td style="font-weight:bold;vertical-align:top;">secure</td><td style="vertical-align:top;">:</td><td><div></div></td></tr><tr><td style="font-weight:bold;vertical-align:top;">version</td><td style="vertical-align:top;">:</td><td><div></div></td></tr></table></div></td></tr></table></div></td></tr><tr><td style="font-weight:bold;vertical-align:top;">delimiters</td><td style="vertical-align:top;">:</td><td><div><table><tr><td><div>{{</div></td></tr><tr><td><div>}}</div></td></tr></table></div></td></tr><tr><td style="font-weight:bold;vertical-align:top;">files</td><td style="vertical-align:top;">:</td><td><div><table></table></div></td></tr><tr><td style="font-weight:bold;vertical-align:top;">flash</td><td style="vertical-align:top;">:</td><td><div></div></td></tr><tr><td style="font-weight:bold;vertical-align:top;">form_label_separator</td><td style="vertical-align:top;">:</td><td><div></div></td></tr><tr><td style="font-weight:bold;vertical-align:top;">formstyle</td><td style="vertical-align:top;">:</td><td><div>bootstrap3_inline</div></td></tr><tr><td style="font-weight:bold;vertical-align:top;">generic_patterns</td><td style="vertical-align:top;">:</td><td><div><table><tr><td><div>*</div></td></tr></table></div></td></tr><tr><td style="font-weight:bold;vertical-align:top;">google_analytics_id</td><td style="vertical-align:top;">:</td><td><div>None</div></td></tr><tr><td style="font-weight:bold;vertical-align:top;">headers</td><td style="vertical-align:top;">:</td><td><div><table><tr><td style="font-weight:bold;vertical-align:top;">X-Powered-By</td><td style="vertical-align:top;">:</td><td><div>web2py</div></td></tr></table></div></td></tr><tr><td style="font-weight:bold;vertical-align:top;">logo</td><td style="vertical-align:top;">:</td><td><div><a class="navbar-brand" href="http://www.web2py.com/" id="web2py-logo"><b>web<span>2</span>py</b>&trade;&nbsp;</a></div></td></tr><tr><td style="font-weight:bold;vertical-align:top;">menu</td><td style="vertical-align:top;">:</td><td><div><table><tr><td><div><table><tr><td><div>Home</div></td></tr><tr><td><div>False</div></td></tr><tr><td><div>/resume/default/index</div></td></tr><tr><td><div><table></table></div></td></tr></table></div></td></tr><tr><td><div><table><tr><td><div>My Sites</div></td></tr><tr><td><div>False</div></td></tr><tr><td><div>/admin/default/site</div></td></tr></table></div></td></tr><tr><td><div><table><tr><td><div>This App</div></td></tr><tr><td><div>False</div></td></tr><tr><td><div>#</div></td></tr><tr><td><div><table><tr><td><div><table><tr><td><div>Design</div></td></tr><tr><td><div>False</div></td></tr><tr><td><div>/admin/default/design/resume</div></td></tr></table></div></td></tr><tr><td><div><li class="divider"></li></div></td></tr><tr><td><div><table><tr><td><div>Controller</div></td></tr><tr><td><div>False</div></td></tr><tr><td><div>/admin/default/edit/resume/controllers/default.py</div></td></tr></table></div></td></tr><tr><td><div><table><tr><td><div>View</div></td></tr><tr><td><div>False</div></td></tr><tr><td><div>/admin/default/edit/resume/views/default/moreresume1.html</div></td></tr></table></div></td></tr><tr><td><div><table><tr><td><div>DB Model</div></td></tr><tr><td><div>False</div></td></tr><tr><td><div>/admin/default/edit/resume/models/db.py</div></td></tr></table></div></td></tr><tr><td><div><table><tr><td><div>Menu Model</div></td></tr><tr><td><div>False</div></td></tr><tr><td><div>/admin/default/edit/resume/models/menu.py</div></td></tr></table></div></td></tr><tr><td><div><table><tr><td><div>Config.ini</div></td></tr><tr><td><div>False</div></td></tr><tr><td><div>/admin/default/edit/resume/private/appconfig.ini</div></td></tr></table></div></td></tr><tr><td><div><table><tr><td><div>Layout</div></td></tr><tr><td><div>False</div></td></tr><tr><td><div>/admin/default/edit/resume/views/layout.html</div></td></tr></table></div></td></tr><tr><td><div><table><tr><td><div>Stylesheet</div></td></tr><tr><td><div>False</div></td></tr><tr><td><div>/admin/default/edit/resume/static/css/web2py-bootstrap3.css</div></td></tr></table></div></td></tr><tr><td><div><table><tr><td><div>Database</div></td></tr><tr><td><div>False</div></td></tr><tr><td><div>/resume/appadmin/index</div></td></tr></table></div></td></tr><tr><td><div><table><tr><td><div>Errors</div></td></tr><tr><td><div>False</div></td></tr><tr><td><div>/admin/default/errors/resume</div></td></tr></table></div></td></tr><tr><td><div><table><tr><td><div>About</div></td></tr><tr><td><div>False</div></td></tr><tr><td><div>/admin/default/about/resume</div></td></tr></table></div></td></tr></table></div></td></tr></table></div></td></tr><tr><td><div><table><tr><td><div>web2py.com</div></td></tr><tr><td><div>False</div></td></tr><tr><td><div>#</div></td></tr><tr><td><div><table><tr><td><div><table><tr><td><div>Download</div></td></tr><tr><td><div>False</div></td></tr><tr><td><div>http://www.web2py.com/examples/default/download</div></td></tr></table></div></td></tr><tr><td><div><table><tr><td><div>Support</div></td></tr><tr><td><div>False</div></td></tr><tr><td><div>http://www.web2py.com/examples/default/support</div></td></tr></table></div></td></tr><tr><td><div><table><tr><td><div>Demo</div></td></tr><tr><td><div>False</div></td></tr><tr><td><div>http://web2py.com/demo_admin</div></td></tr></table></div></td></tr><tr><td><div><table><tr><td><div>Quick Examples</div></td></tr><tr><td><div>False</div></td></tr><tr><td><div>http://web2py.com/examples/default/examples</div></td></tr></table></div></td></tr><tr><td><div><table><tr><td><div>FAQ</div></td></tr><tr><td><div>False</div></td></tr><tr><td><div>http://web2py.com/AlterEgo</div></td></tr></table></div></td></tr><tr><td><div><table><tr><td><div>Videos</div></td></tr><tr><td><div>False</div></td></tr><tr><td><div>http://www.web2py.com/examples/default/videos/</div></td></tr></table></div></td></tr><tr><td><div><table><tr><td><div>Free Applications</div></td></tr><tr><td><div>False</div></td></tr><tr><td><div>http://web2py.com/appliances</div></td></tr></table></div></td></tr><tr><td><div><table><tr><td><div>Plugins</div></td></tr><tr><td><div>False</div></td></tr><tr><td><div>http://web2py.com/plugins</div></td></tr></table></div></td></tr><tr><td><div><table><tr><td><div>Recipes</div></td></tr><tr><td><div>False</div></td></tr><tr><td><div>http://web2pyslices.com/</div></td></tr></table></div></td></tr></table></div></td></tr></table></div></td></tr><tr><td><div><table><tr><td><div>Documentation</div></td></tr><tr><td><div>False</div></td></tr><tr><td><div>#</div></td></tr><tr><td><div><table><tr><td><div><table><tr><td><div>Online book</div></td></tr><tr><td><div>False</div></td></tr><tr><td><div>http://www.web2py.com/book</div></td></tr></table></div></td></tr><tr><td><div><li class="divider"></li></div></td></tr><tr><td><div><table><tr><td><div>Preface</div></td></tr><tr><td><div>False</div></td></tr><tr><td><div>http://www.web2py.com/book/default/chapter/00</div></td></tr></table></div></td></tr><tr><td><div><table><tr><td><div>Introduction</div></td></tr><tr><td><div>False</div></td></tr><tr><td><div>http://www.web2py.com/book/default/chapter/01</div></td></tr></table></div></td></tr><tr><td><div><table><tr><td><div>Python</div></td></tr><tr><td><div>False</div></td></tr><tr><td><div>http://www.web2py.com/book/default/chapter/02</div></td></tr></table></div></td></tr><tr><td><div><table><tr><td><div>Overview</div></td></tr><tr><td><div>False</div></td></tr><tr><td><div>http://www.web2py.com/book/default/chapter/03</div></td></tr></table></div></td></tr><tr><td><div><table><tr><td><div>The Core</div></td></tr><tr><td><div>False</div></td></tr><tr><td><div>http://www.web2py.com/book/default/chapter/04</div></td></tr></table></div></td></tr><tr><td><div><table><tr><td><div>The Views</div></td></tr><tr><td><div>False</div></td></tr><tr><td><div>http://www.web2py.com/book/default/chapter/05</div></td></tr></table></div></td></tr><tr><td><div><table><tr><td><div>Database</div></td></tr><tr><td><div>False</div></td></tr><tr><td><div>http://www.web2py.com/book/default/chapter/06</div></td></tr></table></div></td></tr><tr><td><div><table><tr><td><div>Forms and Validators</div></td></tr><tr><td><div>False</div></td></tr><tr><td><div>http://www.web2py.com/book/default/chapter/07</div></td></tr></table></div></td></tr><tr><td><div><table><tr><td><div>Email and SMS</div></td></tr><tr><td><div>False</div></td></tr><tr><td><div>http://www.web2py.com/book/default/chapter/08</div></td></tr></table></div></td></tr><tr><td><div><table><tr><td><div>Access Control</div></td></tr><tr><td><div>False</div></td></tr><tr><td><div>http://www.web2py.com/book/default/chapter/09</div></td></tr></table></div></td></tr><tr><td><div><table><tr><td><div>Services</div></td></tr><tr><td><div>False</div></td></tr><tr><td><div>http://www.web2py.com/book/default/chapter/10</div></td></tr></table></div></td></tr><tr><td><div><table><tr><td><div>Ajax Recipes</div></td></tr><tr><td><div>False</div></td></tr><tr><td><div>http://www.web2py.com/book/default/chapter/11</div></td></tr></table></div></td></tr><tr><td><div><table><tr><td><div>Components and Plugins</div></td></tr><tr><td><div>False</div></td></tr><tr><td><div>http://www.web2py.com/book/default/chapter/12</div></td></tr></table></div></td></tr><tr><td><div><table><tr><td><div>Deployment Recipes</div></td></tr><tr><td><div>False</div></td></tr><tr><td><div>http://www.web2py.com/book/default/chapter/13</div></td></tr></table></div></td></tr><tr><td><div><table><tr><td><div>Other Recipes</div></td></tr><tr><td><div>False</div></td></tr><tr><td><div>http://www.web2py.com/book/default/chapter/14</div></td></tr></table></div></td></tr><tr><td><div><table><tr><td><div>Helping web2py</div></td></tr><tr><td><div>False</div></td></tr><tr><td><div>http://www.web2py.com/book/default/chapter/15</div></td></tr></table></div></td></tr><tr><td><div><table><tr><td><div>Buy web2py\'s book</div></td></tr><tr><td><div>False</div></td></tr><tr><td><div>http://stores.lulu.com/web2py</div></td></tr></table></div></td></tr></table></div></td></tr></table></div></td></tr><tr><td><div><table><tr><td><div>Community</div></td></tr><tr><td><div>False</div></td></tr><tr><td><div>None</div></td></tr><tr><td><div><table><tr><td><div><table><tr><td><div>Groups</div></td></tr><tr><td><div>False</div></td></tr><tr><td><div>http://www.web2py.com/examples/default/usergroups</div></td></tr></table></div></td></tr><tr><td><div><table><tr><td><div>Twitter</div></td></tr><tr><td><div>False</div></td></tr><tr><td><div>http://twitter.com/web2py</div></td></tr></table></div></td></tr><tr><td><div><table><tr><td><div>Live Chat</div></td></tr><tr><td><div>False</div></td></tr><tr><td><div>http://webchat.freenode.net/?channels=web2py</div></td></tr></table></div></td></tr></table></div></td></tr></table></div></td></tr></table></div></td></tr><tr><td style="font-weight:bold;vertical-align:top;">meta</td><td style="vertical-align:top;">:</td><td><div><table><tr><td style="font-weight:bold;vertical-align:top;">author</td><td style="vertical-align:top;">:</td><td><div>Your Name &lt;you@example.com&gt;</div></td></tr><tr><td style="font-weight:bold;vertical-align:top;">description</td><td style="vertical-align:top;">:</td><td><div>a cool new app</div></td></tr><tr><td style="font-weight:bold;vertical-align:top;">generator</td><td style="vertical-align:top;">:</td><td><div>Web2py Web Framework</div></td></tr><tr><td style="font-weight:bold;vertical-align:top;">keywords</td><td style="vertical-align:top;">:</td><td><div>web2py, python, framework</div></td></tr></table></div></td></tr><tr><td style="font-weight:bold;vertical-align:top;">models_to_run</td><td style="vertical-align:top;">:</td><td><div><table><tr><td><div>^\\w+\\.py$</div></td></tr><tr><td><div>^default/\\w+\\.py$</div></td></tr><tr><td><div>^default/moreresume1/\\w+\\.py$</div></td></tr></table></div></td></tr><tr><td style="font-weight:bold;vertical-align:top;">postprocessing</td><td style="vertical-align:top;">:</td><td><div><table></table></div></td></tr><tr><td style="font-weight:bold;vertical-align:top;">session_client</td><td style="vertical-align:top;">:</td><td><div>127.0.0.1</div></td></tr><tr><td style="font-weight:bold;vertical-align:top;">session_cookie_compression_level</td><td style="vertical-align:top;">:</td><td><div>None</div></td></tr><tr><td style="font-weight:bold;vertical-align:top;">session_cookie_expires</td><td style="vertical-align:top;">:</td><td><div>None</div></td></tr><tr><td style="font-weight:bold;vertical-align:top;">session_data_name</td><td style="vertical-align:top;">:</td><td><div>session_data_resume</div></td></tr><tr><td style="font-weight:bold;vertical-align:top;">session_file</td><td style="vertical-align:top;">:</td><td><div>&lt;open file &#x27;/home/user/Desktop/web2py/applications/resume/sessions/12b/018/127.0.0.1-1ac518ef-328f-4f7c-a2ec-982cedfd4508&#x27;, mode &#x27;rb+&#x27; at 0x7f14e41e8270&gt;</div></td></tr><tr><td style="font-weight:bold;vertical-align:top;">session_filename</td><td style="vertical-align:top;">:</td><td><div>/home/user/Desktop/web2py/applications/resume/sessions/127.0.0.1-1ac518ef-328f-4f7c-a2ec-982cedfd4508</div></td></tr><tr><td style="font-weight:bold;vertical-align:top;">session_hash</td><td style="vertical-align:top;">:</td><td><div>f51bedae87f31e43e4828f97ad0fef1e</div></td></tr><tr><td style="font-weight:bold;vertical-align:top;">session_id</td><td style="vertical-align:top;">:</td><td><div>127.0.0.1-1ac518ef-328f-4f7c-a2ec-982cedfd4508</div></td></tr><tr><td style="font-weight:bold;vertical-align:top;">session_id_name</td><td style="vertical-align:top;">:</td><td><div>session_id_resume</div></td></tr><tr><td style="font-weight:bold;vertical-align:top;">session_locked</td><td style="vertical-align:top;">:</td><td><div>True</div></td></tr><tr><td style="font-weight:bold;vertical-align:top;">session_masterapp</td><td style="vertical-align:top;">:</td><td><div>resume</div></td></tr><tr><td style="font-weight:bold;vertical-align:top;">session_new</td><td style="vertical-align:top;">:</td><td><div>False</div></td></tr><tr><td style="font-weight:bold;vertical-align:top;">session_storage_type</td><td style="vertical-align:top;">:</td><td><div>file</div></td></tr><tr><td style="font-weight:bold;vertical-align:top;">status</td><td style="vertical-align:top;">:</td><td><div>200</div></td></tr><tr><td style="font-weight:bold;vertical-align:top;">subtitle</td><td style="vertical-align:top;">:</td><td><div></div></td></tr><tr><td style="font-weight:bold;vertical-align:top;">title</td><td style="vertical-align:top;">:</td><td><div>Resume</div></td></tr><tr><td style="font-weight:bold;vertical-align:top;">view</td><td style="vertical-align:top;">:</td><td><div>default/moreresume1.html</div></td></tr></table></div>'
tRp133
sS'locals'
p134
(dp135
g4
S"'/home/user/Desktop/web2py/applications/resume/views/default/moreresume1.html'"
p136
sg6
S'\'response.write(\\\'<!DOCTYPE html>\\\\n<!--[if (gt IE ..."></script>\\\\n  </body>\\\\n</html>\\\\n\\\', escape=False)\''
p137
sssS'traceback'
p138
S'Traceback (most recent call last):\n  File "/home/user/Desktop/web2py/gluon/restricted.py", line 226, in restricted\n    ccode = compile2(code, layer)\n  File "/home/user/Desktop/web2py/gluon/restricted.py", line 209, in compile2\n    return compile(code.rstrip().replace(\'\\r\\n\', \'\\n\') + \'\\n\', layer, \'exec\')\n  File "/home/user/Desktop/web2py/applications/resume/views/default/moreresume1.html", line 175\n    elif request.args(1)==\'7\' or request.args(1)==\'8\' or request.args(1)==\'9\':\n       ^\nSyntaxError: invalid syntax\n'
p139
s.