(dp1
S'output'
p2
S"<type 'exceptions.AttributeError'> 'list' object has no attribute 'Company_Name'"
p3
sS'layer'
p4
S'/home/saiteja/Desktop/web2py/applications/resume/views/default/moreresume1.html'
p5
sS'code'
p6
S'response.write(\'<!DOCTYPE html>\\n<!--[if (gt IE 9)|!(IE)]><!--> <html class="no-js" lang="\', escape=False)\nresponse.write(T.accepted_language or \'en\')\nresponse.write(\'"> <!--<![endif]-->\\n  <head>\\n    <meta charset="utf-8">\\n    <!-- www.phpied.com/conditional-comments-block-downloads/ -->\\n    <!-- Always force latest IE rendering engine\\n         (even in intranet) & Chrome Frame\\n         Remove this if you use the .htaccess -->\\n    <meta http-equiv="X-UA-Compatible" content="IE=edge\', escape=False)\nresponse.write(not request.is_local and \',chrome=1\' or \'\')\nresponse.write(\'">\\n    <!--  Mobile Viewport Fix\\n          j.mp/mobileviewport & davidbcalhoun.com/2010/viewport-metatag\\n          device-width: Occupy full width of the screen in its current orientation\\n          initial-scale = 1.0 retains dimensions instead of zooming out if page height > device height\\n          user-scalable = yes allows the user to zoom in -->\\n    <meta name="viewport" content="width=device-width, initial-scale=1.0">\\n    <title>\', escape=False)\nresponse.write(response.title or request.application)\nresponse.write(\'</title>\\n    <!-- http://dev.w3.org/html5/markup/meta.name.html -->\\n    <meta name="application-name" content="\', escape=False)\nresponse.write(request.application)\nresponse.write(\'">\\n    <!-- Speaking of Google, don\\\'t forget to set your site up:\\n         http://google.com/webmasters -->\\n    <meta name="google-site-verification" content="">\\n    <!-- include stylesheets -->\\n    <link rel="stylesheet" href="\', escape=False)\nresponse.write(URL(\'static\',\'css/bootstrap.min.css\'))\nresponse.write(\'"/>\\n    <link rel="stylesheet" href="\', escape=False)\nresponse.write(URL(\'static\',\'css/web2py-bootstrap3.css\'))\nresponse.write(\'"/>\\n    <link rel="shortcut icon" href="\', escape=False)\nresponse.write(URL(\'static\',\'images/favicon.ico\'))\nresponse.write(\'" type="image/x-icon">\\n    <link rel="apple-touch-icon" href="\', escape=False)\nresponse.write(URL(\'static\',\'images/favicon.png\'))\nresponse.write(\'">\\n    <!-- All JavaScript at the bottom, except for Modernizr which enables\\n         HTML5 elements & feature detects -->\\n    <script src="\', escape=False)\nresponse.write(URL(\'static\',\'js/modernizr-2.8.3.min.js\'))\nresponse.write(\'"></script>\\n    <!--[if lt IE 9]>\\n        <script src="\', escape=False)\nresponse.write(URL(\'static\',\'js/respond-1.4.2.min.js\'))\nresponse.write(\'"></script>\\n        <![endif]-->\\n    <!-- Favicons -->\\n    \', escape=False)\nresponse.write(\'<script type="text/javascript"><!--\\n    // These variables are used by the web2py_ajax_init function in web2py_ajax.js (which is loaded below).\\n    var w2p_ajax_confirm_message = "\', escape=False)\nresponse.write(T(\'Are you sure you want to delete this object?\'))\nresponse.write(\'";\\n    var w2p_ajax_disable_with_message = "\', escape=False)\nresponse.write(T(\'Working...\'))\nresponse.write(\'";\\n    var w2p_ajax_date_format = "\', escape=False)\nresponse.write(T(\'%Y-%m-%d\'))\nresponse.write(\'";\\n    var w2p_ajax_datetime_format = "\', escape=False)\nresponse.write(T(\'%Y-%m-%d %H:%M:%S\'))\nresponse.write(\'";\\n    var ajax_error_500 = \\\'\', escape=False)\nresponse.write(T.M(\'An error occured, please [[reload %s]] the page\') % URL(args=request.args, vars=request.get_vars))\nresponse.write("\'\\n    //--></script>\\n", escape=False)\nresponse.files.insert(0,URL(\'static\',\'js/jquery.js\'))\nresponse.files.insert(1,URL(\'static\',\'css/calendar.css\'))\nresponse.files.insert(2,URL(\'static\',\'js/calendar.js\'))\nresponse.files.insert(3,URL(\'static\',\'js/web2py.js\'))\nresponse.include_meta()\nresponse.include_files()\nresponse.write(\'\\n\', escape=False)\nresponse.write(\' <!-- this includes jquery.js, calendar.js/.css and web2py.js -->\\n    \', escape=False)\nresponse.write(\'\\n    \', escape=False)\n# using sidebars need to know what sidebar you want to use\nmc0 = \'col-md-12\'\nmc1 = \'col-md-9\'\nmc2 = \'col-md-6\'\nleft_sidebar_enabled = globals().get(\'left_sidebar_enabled\', False)\nright_sidebar_enabled = globals().get(\'right_sidebar_enabled\', False)\nmiddle_column = {0: mc0, 1: mc1, 2: mc2}[\n(left_sidebar_enabled and 1 or 0)+(right_sidebar_enabled and 1 or 0)]\nresponse.write(\'\\n  </head>\\n  <body>\\n    <!--[if lt IE 8]><p class="browserupgrade">You are using an <strong>outdated</strong> browser. Please <a href="http://browsehappy.com/">upgrade your browser</a> to improve your experience.</p><![endif]-->\\n    <div class="w2p_flash alert alert-dismissable">\', escape=False)\nresponse.write(response.flash or \'\')\nresponse.write(\'</div>\\n    <!-- Navbar ======================================= -->\\n    <nav class="navbar navbar-default navbar-fixed-top" role="navigation">\\n      <div class="container-fluid">\\n        <div class="navbar-header">\\n          <button type="button" class="navbar-toggle" data-toggle="collapse" data-target=".navbar-collapse">\\n            <span class="sr-only">Toggle navigation</span>\\n            <span class="icon-bar"></span>\\n            <span class="icon-bar"></span>\\n            <span class="icon-bar"></span>\\n          </button>\\n          \', escape=False)\nresponse.write(response.logo or \'\')\nresponse.write(\'\\n        </div>\\n        <div class="collapse navbar-collapse navbar-ex1-collapse">\\n          <ul class="nav navbar-nav navbar-right">\\n            \', escape=False)\nresponse.write(\'auth\' in globals() and auth.navbar(\'Welcome\',mode=\'dropdown\') or \'\')\nresponse.write(\'\\n          </ul>\\n          \', escape=False)\nif response.menu:\n    response.write(\'\\n          \', escape=False)\n    response.write(MENU(response.menu, _class=\'nav navbar-nav\',li_class=\'dropdown\',ul_class=\'dropdown-menu\'))\n    response.write(\'\\n          \', escape=False)\n    pass\nresponse.write(\'\\n        </div>\\n      </div>\\n    </nav>\\n    <!-- Masthead ===================================== -->    \\n    \', escape=False)\nresponse.write(\'\\n    \', escape=False)\nresponse.write(\'\\n    <!-- Main ========================================= -->\\n    <!-- Begin page content -->\\n    <div class="container-fluid main-container">\\n      \', escape=False)\nif left_sidebar_enabled:\n    response.write(\'\\n        <div class="col-md-3 left-sidebar">\\n            \', escape=False)\n    response.write(\'\\n            <h3>Left Sidebar</h3>\\n            <p></p>\\n            \', escape=False)\n    response.write(\'\\n        </div>\\n      \', escape=False)\n    pass\nresponse.write(\'\\n\\n      <div class="\', escape=False)\nresponse.write(middle_column)\nresponse.write(\'">\\n        \', escape=False)\nresponse.write(\'\\n        \', escape=False)\nresponse.write(\'\\n<style>\\n    \', escape=False)\ntemp=request.args(1)\nresponse.write(\'\\n\', escape=False)\nif request.args(1)==\'1\':\n    response.write(\'\\n#JSFiddle div.block p {\\n    line-height: 1.4em;\\n    margin: 0 0 .6em\\n}\\n\\n#JSFiddle div.block p.sub-title {\\n    font-size: 1.2em;\\n    font-weight: bold;\\n    margin: 0\\n}\\n\\n#JSFiddle div.block p.sub-where {\\n    font-size: 1.1em;\\n    margin: 0\\n}\\n\\n#JSFiddle div.block p.sub-dates {\\n    font-size: 1em;\\n    color: #555;\\n    margin: 0 0 .5em\\n}\\n\\n#JSFiddle div.block p.person {\\n    font-size: 4em;\\n    margin-bottom: 0;\\n    line-height: 1.2em;\\n    margin-top: -.2em\\n}\\n\\n#JSFiddle div.block p.jobtitle {\\n    font-size: 1.2em;\\n    margin: 0\\n}\\n\\n#JSFiddle div.block p.location {\\n    font-size: 1em;\\n    color: #555\\n}\\n\\n#JSFiddle div.block span.company {\\n    color: #555;\\n    font-weight: bold\\n}\\n\\n#JSFiddle div.block p.title {\\n    font-size: 1.3em;\\n    font-weight: bold;\\n    margin-bottom: .5em;\\n    background: #eee;\\n    padding: .2em .5em\\n}\\n\\n#JSFiddle div.block.person {\\n    margin: 0;\\n}\\n\\n#JSFiddle table.wide {\\n    width: 100%;\\n    border-collapse: collapse\\n}\\n\\n#JSFiddle td.left {\\n    width: 30%;\\n    vertical-align: top\\n}\\n\\n#JSFiddle td.right {\\n    width: 70%;\\n    vertical-align: top\\n}\\n\', escape=False)\n    pass\nresponse.write(\'\\n\\n\\n\\n\', escape=False)\nif request.args(1)==\'2\':\n    response.write(\'\\n#JSFiddle div.block p {\\n    line-height: 1.4em;\\n    margin: 0 0 .6em\\n}\\n\\n#JSFiddle div.blocks * {\\n    line-height: 1.4em\\n}\\n\\n#JSFiddle div.block p.person {\\n    font-size: 3em;\\n    margin-bottom: 0;\\n    padding: 0 .2em;\\n    line-height: 1em\\n}\\n\\n#JSFiddle div.block p.jobtitle {\\n    font-size: 1.2em;\\n    margin: .5em 0 0;\\n    border-top: 1px solid #a77;\\n    padding: .3em 10px 0 0\\n}\\n\\n#JSFiddle div.block p.location {\\n    font-size: 1em;\\n    color: #fff;\\n    padding-right: 10px\\n}\\n\\n#JSFiddle div.block p.title {\\n    font-size: 1.3em;\\n    font-weight: bold;\\n    margin-bottom: .5em;\\n    color: #800\\n}\\n\\n#JSFiddle div.block p.sub-title {\\n    font-size: 1.2em;\\n    font-weight: bold;\\n    margin: 0\\n}\\n\\n#JSFiddle div.block p.sub-where {\\n    font-size: 1.1em;\\n    margin: 0\\n}\\n\\n#JSFiddle div.block p.sub-dates {\\n    font-size: 1em;\\n    color: #555;\\n    margin: 0 0 .5em\\n}\\n\\n#JSFiddle div.block span.company {\\n    color: #555;\\n    font-weight: bold\\n}\\n\\n#JSFiddle div.blocks {\\n    padding-top: 13em\\n}\\n\\n#JSFiddle div.block.person {\\n    margin-top: 15mm;\\n    text-align: right;\\n    border-color: transparent\\n}\\n\\n#JSFiddle div.block.contact {\\n    margin: 15mm 8.13953488372093% 0 1em !important;\\n    border-color: transparent;\\n    font-size: 1.2em;\\n    color: #555\\n}\\n\\n#JSFiddle table.wide {\\n    position: absolute;\\n    width: 340mm;\\n    border-collapse: collapse;\\n    margin: -1.8mm -1.13953488372093% 0 -2.4%\\n}\\n\\n#JSFiddle table.wide > tbody {\\n    display: inline-table;\\n    width: 340mm;\\n    padding-left: 8.13953488372093%;\\n    padding-right: 8.13953488372093%\\n}\\n\\n#JSFiddle td.left {\\n    width: 50%;\\n    vertical-align: top;\\n    background: #800;\\n    border-right: 4px solid #000;\\n    color: #fff;\\n    padding-left: 7%;\\n    padding-bottom: 2em\\n}\\n\\n#JSFiddle td.right {\\n    width: 50%;\\n    vertical-align: top;\\n    background: #eee;\\n    border-left: 4px solid #000;\\n    line-height: 2em\\n}\\n\\n#JSFiddle div.blocks {\\n    padding-top: 175.65px\\n}\\n\', escape=False)\n    pass\nresponse.write(\'\\n\\n\\n\\n\', escape=False)\nif request.args(1)==\'3\':\n    response.write(\'\\n#JSFiddle table.person {\\n    margin-left: -0.3em\\n}\\n\\n#JSFiddle td.firstname {\\n    font-size: 3em;\\n    height: .5em;\\n    padding: 0\\n}\\n\\n#JSFiddle td.lastname {\\n    font-size: 5em;\\n    height: 1em;\\n    padding: .05em 0;\\n    line-height: 1em\\n}\\n\\n#JSFiddle div.block p {\\n    line-height: 1.2em;\\n    margin: 0 0 .6em\\n}\\n\\n#JSFiddle div.block p.person {\\n    font-size: 4em;\\n    margin-bottom: 0\\n}\\n\\n#JSFiddle div.block p.sub-title {\\n    font-size: 1.2em;\\n    font-weight: bold;\\n    margin: 0 0 .2em\\n}\\n\\n#JSFiddle div.block p.sub-where {\\n    font-size: 1.1em;\\n    margin: 0 0 .2em\\n}\\n\\n#JSFiddle div.block p.sub-dates {\\n    font-size: 1em;\\n    color: #555;\\n    margin: 0 0 .5em\\n}\\n\\n#JSFiddle div.block p.jobtitle {\\n    font-size: 1.2em;\\n    margin: .6em 0 .2em\\n}\\n\\n#JSFiddle div.block p.location {\\n    font-size: 1em;\\n    color: #555\\n}\\n\\n#JSFiddle div.block span.company {\\n    color: #555;\\n    font-weight: bold\\n}\\n\\n#JSFiddle div.block p.title {\\n    font-size: 1.3em;\\n    font-weight: bold;\\n    margin-bottom: .5em;\\n    padding-bottom: .2em;\\n    border-bottom: .2em solid #ddd\\n}\\n\\n#JSFiddle div.blocks * {\\n    line-height: 1.4em;\\n}\\n\\n#JSFiddle table.wide {\\n    width: 100%;\\n    border-collapse: collapse\\n}\\n\\n#JSFiddle td.left {\\n    width: 65%;\\n    vertical-align: top\\n}\\n\\n#JSFiddle td.right {\\n    width: 35%;\\n    vertical-align: top;\\n    text-align: right\\n}\\n\', escape=False)\n    pass\nresponse.write(\'\\n\\n\\n\\n\', escape=False)\nif request.args(1)==\'4\':\n    response.write(\'\\n#JSFiddle div.block p {\\n    line-height: 1.4em;\\n    margin: 0 0 .6em\\n}\\n\\n#JSFiddle div.block p.sub-title {\\n    font-size: 1.2em;\\n    font-weight: bold;\\n    margin: 0\\n}\\n\\n#JSFiddle div.block p.sub-where {\\n    font-size: 1.1em;\\n    margin: 0\\n}\\n\\n#JSFiddle div.block p.sub-dates {\\n    font-size: 1em;\\n    color: #555;\\n    margin: 0 0 .5em\\n}\\n\\n#JSFiddle div.block p.person {\\n    font-size: 4em;\\n    margin-bottom: 0;\\n    line-height: 1.2em;\\n    margin-top: -.2em;\\n}\\n\\n#JSFiddle div.block p.jobtitle {\\n    font-size: 1.2em;\\n    margin: 0\\n}\\n\\n#JSFiddle div.block p.location {\\n    font-size: 1em;\\n    color: #555;\\n    margin: 0\\n}\\n\\n#JSFiddle div.block span.company {\\n    color: #555;\\n    font-weight: bold\\n}\\n\\n#JSFiddle div.block p.title {\\n    font-size: 1.3em;\\n    font-weight: bold;\\n    margin: 0 0 .5em 0;\\n    padding: .2em;\\n    text-transform: uppercase;\\n    border-top: .2em dotted #aaa\\n}\\n\\n#JSFiddle div.blocks {\\n    margin-top: 1em\\n}\\n\\n#JSFiddle div.block-inner {\\n    margin-left: 2em\\n}\\n\\n#JSFiddle table.wide {\\n    width: 100%;\\n    border-collapse: collapse\\n}\\n\\n#JSFiddle td.left {\\n    width: 65%;\\n    vertical-align: top\\n}\\n\\n#JSFiddle td.right {\\n    width: 35%;\\n    vertical-align: top;\\n    text-align: right\\n}\\n\', escape=False)\n    pass\nresponse.write(\'\\n\\n\\n\\n\', escape=False)\nif request.args(1)==\'5\':\n    response.write(\'\\n#JSFiddle div.block p {\\n    line-height: 1.4em;\\n    margin: 0 0 .6em\\n}\\n\\n#JSFiddle div.block p.sub-title {\\n    font-size: 1.2em;\\n    font-weight: bold;\\n    margin: 0\\n}\\n\\n#JSFiddle div.block p.sub-where {\\n    font-size: 1.1em;\\n    margin: 0\\n}\\n\\n#JSFiddle div.block p.sub-dates {\\n    font-size: 1em;\\n    color: #555;\\n    margin: 0 0 .5em\\n}\\n\\n#JSFiddle div.block p.person {\\n    font-size: 4em;\\n    margin-bottom: 0;\\n    line-height: 1.2em;\\n    margin-top: -.2em;\\n}\\n\\n#JSFiddle div.block p.jobtitle {\\n    font-size: 1.2em;\\n    margin: 0\\n}\\n\\n#JSFiddle div.block p.location {\\n    font-size: 1em;\\n    color: #555;\\n    margin: 0\\n}\\n\\n#JSFiddle div.block span.company {\\n    color: #555;\\n    font-weight: bold\\n}\\n\\n#JSFiddle div.block p.title {\\n    font-size: 1.3em;\\n    font-weight: bold;\\n    margin: 0 0 .5em 0;\\n    padding: .2em;\\n    text-transform: uppercase;\\n    border-bottom: .25em solid #bbb\\n}\\n\\n#JSFiddle div.blocks {\\n    margin-top: 1em\\n}\\n\\n#JSFiddle div.block-inner {\\n    margin-left: 2em\\n}\\n\\n#JSFiddle table.wide {\\n    width: 100%;\\n    border-collapse: collapse\\n}\\n\\n#JSFiddle td.left {\\n    width: 65%;\\n    vertical-align: top\\n}\\n\\n#JSFiddle td.right {\\n    width: 35%;\\n    vertical-align: top;\\n    text-align: right\\n}\\n\', escape=False)\n    pass\nresponse.write(\'\\n\\n\\n\\n\', escape=False)\nif request.args(1)==\'6\':\n    response.write(\'\\n#JSFiddle div.block p {\\n    line-height: 1.4em;\\n    margin: 0 0 .6em\\n}\\n\\n#JSFiddle div.block p.sub-title {\\n    font-size: 1.2em;\\n    font-weight: bold;\\n    margin: 0\\n}\\n\\n#JSFiddle div.block p.sub-where {\\n    font-size: 1.1em;\\n    margin: 0\\n}\\n\\n#JSFiddle div.block p.sub-dates {\\n    font-size: 1em;\\n    color: #555;\\n    margin: 0 0 .5em\\n}\\n\\n#JSFiddle div.block p.person {\\n    font-size: 4em;\\n    margin-bottom: 0;\\n    line-height: 1.2em;\\n    margin-top: -.2em;\\n}\\n\\n#JSFiddle div.block p.jobtitle {\\n    font-size: 1.2em;\\n    margin: 0\\n}\\n\\n#JSFiddle div.block p.location {\\n    font-size: 1em;\\n    color: #555;\\n    margin: 0\\n}\\n\\n#JSFiddle div.block span.company {\\n    color: #555;\\n    font-weight: bold\\n}\\n\\n#JSFiddle div.block p.title {\\n    font-size: 1.3em;\\n    font-weight: bold;\\n    margin: 0 0 .5em 0;\\n    padding: 0 .5em .1em;\\n    text-transform: uppercase;\\n    background: #ddd;\\n    border: 1px solid #ddd;\\n    -moz-border-radius: 0 0 1.3em 0;\\n    -webkit-border-radius: 0 0 1.3em 0;\\n    border-radius: 0 0 1.3em 0;\\n    border-bottom-right-radius: 1.3em\\n}\\n\\n#JSFiddle div.blocks {\\n    margin-top: 1em\\n}\\n\\n#JSFiddle div.block-inner {\\n    margin-left: 2em\\n}\\n\\n#JSFiddle td.block-title {\\n    width: 50%;\\n    padding: 0;\\n    border-top: .2em solid #ddd\\n}\\n\\n#JSFiddle table.wide {\\n    width: 100%;\\n    border-collapse: collapse\\n}\\n\\n#JSFiddle table.wide.title {\\n    page-break-inside: avoid;\\n    page-break-after: avoid\\n}\\n\\n#JSFiddle td.left {\\n    width: 65%;\\n    vertical-align: top\\n}\\n\\n#JSFiddle td.right {\\n    width: 35%;\\n    vertical-align: top;\\n    text-align: right\\n}\\n\', escape=False)\n    pass\nresponse.write(\'\\n\\n\\n\\n\', escape=False)\nif request.args(1)==\'7\':\n    response.write(\'\\n#JSFiddle div.block p {\\n    line-height: 1.4em;\\n    margin: .5em 0 .6em\\n}\\n\\n#JSFiddle div.block p.sub-title {\\n    font-size: 1.2em;\\n    font-weight: bold;\\n    margin: 0\\n}\\n\\n#JSFiddle div.block p.sub-where {\\n    font-size: 1.1em;\\n    margin: 0\\n}\\n\\n#JSFiddle div.block p.sub-dates {\\n    font-size: 1em;\\n    color: #555;\\n    margin: 0 0 .5em\\n}\\n\\n#JSFiddle div.block p.person {\\n    font-size: 4em;\\n    margin-bottom: 0;\\n    line-height: 1.2em;\\n    margin-top: -.2em;\\n}\\n\\n#JSFiddle div.block p.jobtitle {\\n    font-size: 1.2em;\\n    margin: 0\\n}\\n\\n#JSFiddle div.block p.location {\\n    font-size: 1em;\\n    color: #555;\\n    margin: 0\\n}\\n\\n#JSFiddle div.block span.company {\\n    color: #555;\\n    font-weight: bold\\n}\\n\\n#JSFiddle div.block p.title {\\n    font-size: 140%;\\n    font-weight: bold;\\n    margin: 0 0 .5em 0;\\n    padding: .2em 0;\\n    text-transform: uppercase\\n}\\n\\n#JSFiddle div.blocks {\\n    margin-top: 1em\\n}\\n\\n#JSFiddle table.wide {\\n    width: 100%;\\n    border-collapse: collapse\\n}\\n\\n#JSFiddle td.left {\\n    width: 65%;\\n    vertical-align: top\\n}\\n\\n#JSFiddle td.right {\\n    width: 35%;\\n    vertical-align: top;\\n    text-align: right\\n}\\n\\n#JSFiddle td.left0 {\\n    width: 35%;\\n    vertical-align: top\\n}\\n\\n#JSFiddle td.right0 {\\n    width: 65%;\\n    vertical-align: top\\n}\\n\', escape=False)\n    pass\nresponse.write(\'\\n\\n\\n\\n\', escape=False)\nif request.args(1)==\'8\':\n    response.write(\'\\n#JSFiddle div.block p {\\n    line-height: 1.4em;\\n    margin: 0 0 .6em\\n}\\n\\n#JSFiddle div.block p.sub-title {\\n    font-size: 1.2em;\\n    font-weight: bold;\\n    margin: 0\\n}\\n\\n#JSFiddle div.block p.sub-where {\\n    font-size: 1.1em;\\n    margin: 0\\n}\\n\\n#JSFiddle div.block p.sub-dates {\\n    font-size: 1em;\\n    color: #555;\\n    margin: 0 0 .5em\\n}\\n\\n#JSFiddle div.block p.person {\\n    font-size: 4em;\\n    margin-bottom: 0;\\n    line-height: 1.2em;\\n    margin-top: -.2em;\\n}\\n\\n#JSFiddle div.block p.jobtitle {\\n    font-size: 1.2em;\\n    margin: 0\\n}\\n\\n#JSFiddle div.block p.location {\\n    font-size: 1em;\\n    color: #555;\\n    margin: 0\\n}\\n\\n#JSFiddle div.block span.company {\\n    color: #555;\\n    font-weight: bold\\n}\\n\\n#JSFiddle div.block p.title {\\n    font-size: 140%;\\n    font-weight: bold;\\n    margin: 0 0 .5em 0;\\n    padding: .2em .5em;\\n    text-transform: uppercase;\\n    border-bottom: .4em solid #ddd\\n}\\n\\n#JSFiddle div.blocks {\\n    margin-top: 1em\\n}\\n\\n#JSFiddle table.wide {\\n    width: 100%;\\n    border-collapse: collapse\\n}\\n\\n#JSFiddle td.left {\\n    width: 65%;\\n    vertical-align: top\\n}\\n\\n#JSFiddle td.right {\\n    width: 35%;\\n    vertical-align: top;\\n    text-align: right\\n}\\n\\n#JSFiddle td.left0 {\\n    width: 35%;\\n    vertical-align: top;\\n    padding: 0\\n}\\n\\n#JSFiddle td.right0 {\\n    width: 65%;\\n    vertical-align: top;\\n    border-left: .5em solid #ddd;\\n    padding-left: .8em\\n}\\n\', escape=False)\n    pass\nresponse.write(\'\\n\\n\\n\\n\', escape=False)\nif request.args(1)==\'9\':\n    response.write(\'\\n#JSFiddle div.block p {\\n    line-height: 1.4em;\\n    margin: .5em 0 .6em\\n}\\n\\n#JSFiddle div.block p.sub-title {\\n    font-size: 1.2em;\\n    font-weight: bold;\\n    margin: 0\\n}\\n\\n#JSFiddle div.block p.sub-where {\\n    font-size: 1.1em;\\n    margin: 0\\n}\\n\\n#JSFiddle div.block p.sub-dates {\\n    font-size: 1em;\\n    color: #555;\\n    margin: 0 0 .5em\\n}\\n\\n#JSFiddle div.block p.person {\\n    font-size: 4em;\\n    margin-bottom: 0;\\n    line-height: 1.2em;\\n    margin-top: -.2em;\\n}\\n\\n#JSFiddle div.block p.jobtitle {\\n    font-size: 1.2em;\\n    margin: 0\\n}\\n\\n#JSFiddle div.block p.location {\\n    font-size: 1em;\\n    color: #555;\\n    margin: 0\\n}\\n\\n#JSFiddle div.block span.company {\\n    color: #555;\\n    font-weight: bold\\n}\\n\\n#JSFiddle div.block p.title {\\n    font-size: 140%;\\n    font-weight: bold;\\n    margin: 0 0 .5em 0;\\n    padding: .2em .5em;\\n    text-transform: uppercase;\\n    background: #ddd\\n}\\n\\n#JSFiddle div.blocks {\\n    margin-top: 1em\\n}\\n\\n#JSFiddle table.wide {\\n    width: 100%;\\n    border-collapse: collapse\\n}\\n\\n#JSFiddle td.left {\\n    width: 65%;\\n    vertical-align: top\\n}\\n\\n#JSFiddle td.right {\\n    width: 35%;\\n    vertical-align: top;\\n    text-align: right\\n}\\n\\n#JSFiddle td.left0 {\\n    width: 35%;\\n    vertical-align: top;\\n    padding: 0\\n}\\n\\n#JSFiddle td.right0 {\\n    width: 65%;\\n    vertical-align: top;\\n    border-left: .5em solid #ddd;\\n    padding-left: .8em\\n}\\n\', escape=False)\n    pass\nresponse.write(\'\\n\\n\\n\\n\', escape=False)\nif request.args(1)==\'10\':\n    response.write(\'\\n#JSFiddle div.block p {\\n    line-height: 1.4em;\\n    margin: 0 0 .6em\\n}\\n\\n#JSFiddle div.block p.sub-title {\\n    font-size: 1.2em;\\n    font-weight: bold;\\n    margin: 0\\n}\\n\\n#JSFiddle div.block p.sub-where {\\n    font-size: 1.1em;\\n    margin: 0\\n}\\n\\n#JSFiddle div.block p.sub-dates {\\n    font-size: 1em;\\n    color: #555;\\n    margin: 0 0 .5em\\n}\\n\\n#JSFiddle div.block p.person {\\n    font-size: 4em;\\n    margin-bottom: 0;\\n    line-height: 1.2em;\\n    margin-top: -.2em;\\n}\\n\\n#JSFiddle div.block p.jobtitle {\\n    font-size: 1.2em;\\n    margin: 0\\n}\\n\\n#JSFiddle div.block p.location {\\n    font-size: 1em;\\n    color: #555;\\n    margin: 0\\n}\\n\\n#JSFiddle div.block span.company {\\n    color: #555;\\n    font-weight: bold\\n}\\n\\n#JSFiddle div.block p.title {\\n    font-size: 1.3em;\\n    font-weight: bold;\\n    margin: 0 0 .5em 0;\\n    padding: .1em .5em;\\n    text-transform: uppercase;\\n    background: #ddd;\\n    border-left: .2em solid #999;\\n    -moz-border-radius: .5em;\\n    -webkit-border-radius: .5em;\\n    border-radius: .5em;\\n    border-top-left-radius: .5em;\\n    border-top-right-radius: .5em;\\n    border-bottom-right-radius: .5em;\\n    border-bottom-left-radius: .5em\\n}\\n\\n#JSFiddle div.blocks {\\n    margin-top: 1em\\n}\\n\\n#JSFiddle div.child {\\n    border-bottom: .2em dotted #bbb;\\n    padding-bottom: 1em\\n}\\n\\n#JSFiddle div.last-child {\\n    border-bottom: none;\\n    padding-bottom: 0\\n}\\n\\n#JSFiddle div.block-inner {\\n    margin-left: 2em\\n}\\n\\n#JSFiddle table.wide {\\n    width: 100%;\\n    border-collapse: collapse\\n}\\n\\n#JSFiddle td.left {\\n    width: 65%;\\n    vertical-align: top\\n}\\n\\n#JSFiddle td.right {\\n    width: 35%;\\n    vertical-align: top;\\n    text-align: right\\n}\\n\', escape=False)\n    pass\nresponse.write(\'\\n\\n\\n\\n\', escape=False)\nif request.args(1)==\'11\':\n    response.write(\'\\n#JSFiddle div.block p {\\n    line-height: 1.4em;\\n    margin: 0 0 .6em\\n}\\n\\n#JSFiddle div.block p.sub-title {\\n    font-size: 1.2em;\\n    font-weight: bold;\\n    margin: 0\\n}\\n\\n#JSFiddle div.block p.sub-where {\\n    font-size: 1.1em;\\n    margin: 0\\n}\\n\\n#JSFiddle div.block p.sub-dates {\\n    font-size: 1em;\\n    color: #555;\\n    margin: 0 0 .5em\\n}\\n\\n#JSFiddle div.block p.person {\\n    font-size: 4em;\\n    margin-bottom: 0;\\n    line-height: 1.2em;\\n    margin-top: -.2em;\\n}\\n\\n#JSFiddle div.block p.jobtitle {\\n    font-size: 1.2em;\\n    margin: 0\\n}\\n\\n#JSFiddle div.block p.location {\\n    font-size: 1em;\\n    color: #555;\\n    margin: 0\\n}\\n\\n#JSFiddle div.block span.company {\\n    color: #555;\\n    font-weight: bold\\n}\\n\\n#JSFiddle div.block p.title {\\n    font-size: 1.3em;\\n    font-weight: bold;\\n    margin: 0 0 .5em 0;\\n    padding: .1em .3em;\\n    text-transform: uppercase;\\n    border-top: .2em solid #bbb\\n}\\n\\n#JSFiddle div.blocks {\\n    margin-top: 1em\\n}\\n\\n#JSFiddle div.child {\\n    padding-left: 1.5em;\\n    border-left: .2em dotted #bbb\\n}\\n\\n#JSFiddle div.last-child {\\n    padding-left: 1.5em;\\n    border-left: .2em dotted #bbb\\n}\\n\\n#JSFiddle div.circle {\\n    border: .1px solid #659AD3;\\n    background: #659AD3;\\n    width: 1.2em;\\n    height: 1.2em;\\n    float: left;\\n    margin-top: .3em;\\n    margin-left: -2.2em;\\n    -moz-border-radius: .6em;\\n    -webkit-border-radius: .6em;\\n    border-radius: .6em;\\n    border-top-left-radius: .6em;\\n    border-top-right-radius: .6em;\\n    border-bottom-right-radius: .6em;\\n    border-bottom-left-radius: .6em\\n}\\n\\n#JSFiddle div.block-inner {\\n    margin-left: 2em\\n}\\n\\n#JSFiddle table.wide {\\n    width: 100%;\\n    border-collapse: collapse\\n}\\n\\n#JSFiddle td.left {\\n    width: 65%;\\n    vertical-align: top\\n}\\n\\n#JSFiddle td.right {\\n    width: 35%;\\n    vertical-align: top;\\n    text-align: right\\n}\\n\', escape=False)\n    pass\nresponse.write(\'\\n\\n\\n\\n\', escape=False)\nif request.args(1)==\'12\':\n    response.write(\'\\n#JSFiddle div.block p {\\n    line-height: 1.4em;\\n    margin: 0 0 .6em\\n}\\n\\n#JSFiddle div.block p.sub-title {\\n    font-size: 1.2em;\\n    font-weight: bold;\\n    margin: 0\\n}\\n\\n#JSFiddle div.block p.sub-where {\\n    font-size: 1.1em;\\n    margin: 0\\n}\\n\\n#JSFiddle div.block p.sub-dates {\\n    font-size: 1em;\\n    color: #555;\\n    margin: 0 0 .5em\\n}\\n\\n#JSFiddle div.block p.person {\\n    font-size: 4em;\\n    margin-bottom: 0;\\n    line-height: 1.2em;\\n    margin-top: -.2em;\\n}\\n\\n#JSFiddle div.block p.jobtitle {\\n    font-size: 1.2em;\\n    margin: 0\\n}\\n\\n#JSFiddle div.block p.location {\\n    font-size: 1em;\\n    color: #555;\\n    margin: 0\\n}\\n\\n#JSFiddle div.block span.company {\\n    color: #555;\\n    font-weight: bold\\n}\\n\\n#JSFiddle div.block p.title {\\n    font-size: 1.3em;\\n    font-weight: bold;\\n    margin: 0 0 .5em 0;\\n    padding: .1em .3em;\\n    text-transform: uppercase;\\n    background: #eee\\n}\\n\\n#JSFiddle div.blocks {\\n    margin-top: 1em\\n}\\n\\n#JSFiddle div.block-inner {\\n    margin-left: 2em\\n}\\n\\n#JSFiddle td.sub-left {\\n    width: 35%;\\n    text-align: right;\\n    vertical-align: top;\\n    padding-right: 2em\\n}\\n\\n#JSFiddle td.sub-right {\\n    width: 65%;\\n    padding: .3em 0;\\n    vertical-align: top\\n}\\n\\n#JSFiddle div.child {\\n    border-bottom: .2em solid #bbb;\\n    padding-bottom: .7em\\n}\\n\\n#JSFiddle div.last-child {\\n    border: none;\\n    padding-bottom: 0\\n}\\n\\n#JSFiddle table.wide {\\n    width: 100%;\\n    border-collapse: collapse\\n}\\n\\n#JSFiddle td.left {\\n    width: 65%;\\n    vertical-align: top\\n}\\n\\n#JSFiddle td.right {\\n    width: 35%;\\n    vertical-align: top;\\n    text-align: right\\n}\\n\', escape=False)\n    pass\nresponse.write(\'\\n</style>\\n\', escape=False)\nfor i in f:\n    response.write(\'\\n\', escape=False)\n    if request.args(1)==\'2\':\n        response.write(\'\\n<div class="form" id="JSFiddle">\\n<table class="wide">\\n    <tbody>\\n        <tr>\\n            <td class="left">\\n                <div style="font-family: Roboto Condensed; margin-bottom: 1em;" class="block person" data-category="person">\\n                    <p class="person nam1" id="nam" style="text-align:left;">\', escape=False)\n        response.write(i.name)\n        response.write(\'</p>\\n                </div>\\n            </td>\\n            <td class="right">\\n                <div style="margin-bottom: 1em;" class="block contact" data-category="contact">\\n                    <div class="html-content e1" id="emai">\', escape=False)\n        response.write(i.email)\n        response.write(\'</div>\\n                        <br><span class="html-content ph1" id="ph">\', escape=False)\n        response.write(i.phone)\n        response.write(\'</span>\\n                </div>\\n            </td>\\n        </tr>\\n    </tbody>\\n</table>\\n<div class="blocks">\\n    <div style="margin-bottom: 1em;" class="block" data-category="text" data-children="" data-id="0">\\n        <p style="font-family: Roboto Condensed;" class="title">Summary</p>\\n        <div class="block-inner">\\n            <div class="html-content sum1" id="su1">\', escape=False)\n        response.write(i.summary)\n        response.write(\'</div>\\n        </div>\\n    </div>\\n    <div style="margin-bottom: 1em;" class="block" data-category="experience" data-children="2" data-id="1">\\n        <p style="font-family: Roboto Condensed;" class="title">Work Experience</p>\\n        <div class="block-inner">\\n            <div style="margin-bottom: 1em;" class="child" data-id="1c0" data-category="experience">\\n                <div class="html-content work1" id="wo1">\', escape=False)\n        response.write(i.works)\n        response.write(\'</div>\\n            </div>\\n            <div class="html-content"><b>Skill Set -</b><span class="html-content work2" id="wo2">\', escape=False)\n        response.write(i.skills)\n        response.write(\'</span></div>\\n        </div>\\n    </div>\\n    <div style="margin-bottom: 1em;" class="block" data-category="education" data-children="1" data-id="2">\\n        <p style="font-family: Roboto Condensed;" class="title">Education</p>\\n        <div class="block-inner">\\n            <div style="margin-bottom: 1em;" class="last-child" data-id="2c0" data-category="education">\\n                <div class="html-content edu1" id="ed1">\', escape=False)\n        response.write(i.education)\n        response.write(\'</div>\\n                <br>\\n                <div class="html-content">\\n                Your GPA -<b><span class="html-content edu2" id="ed2">\', escape=False)\n        response.write(i.gpa)\n        response.write(\'</span></b>\\n            </div>\\n        </div>\\n    </div>\\n    <div style="margin-bottom: 1em;" class="block" data-category="text" data-children="" data-id="3">\\n        <p style="font-family: Roboto Condensed;" class="title">Additional Information</p>\\n        <div class="block-inner">\\n            <div class="html-content add1" id="ad1">\', escape=False)\n        response.write(i.addinfo)\n        response.write(\'</div>\\n        </div>\\n    </div>\\n</div>\\n</div>\\n<div class="container text-center">\\n<div class="btn-group" >\\n        <button class="btn btn-info" onclick="return xepOnline.Formatter.Format(\\\'JSFiddle\\\', {render:\\\'download\\\'})">Generate PDF</button>\\n    <button class="btn btn-info" onclick="return xepOnline.Formatter.Format(\\\'JSFiddle\\\', {render:\\\'embed\\\', mimeType:\\\'image/png\\\'})">PNG @120dpi</button>\\n    \', escape=False)\n        more=i.id\n        response.write(\'\\n    \', escape=False)\n        response.write(A(\'Mark Resume\',callback=URL(\'default\', \'markresume\', args=[i.id]),target=\'change\', _class="btn btn-info"))\n        response.write(\'\\n    <button  class="btn btn-info" onclick="printDiv(\\\'JSFiddle\\\');">Print</button>\\n</div>\\n</div>\\n\\n\', escape=False)\n        if commenta:\n            response.write(\'\\n<h3>Comments</h3>\\n<br>\\n\', escape=False)\n            for i in commenta:\n                response.write(\'\\n    <b>\', escape=False)\n                response.write(db.auth_user[i.userid].first_name)\n                response.write(\' \', escape=False)\n                response.write(db.auth_user[i.userid].last_name)\n                response.write(\'</b> :\\n  \', escape=False)\n                response.write(i.body)\n                response.write(\' \', escape=False)\n                if i.userid == auth.user.id:\n                    response.write(\' : \', escape=False)\n                    response.write(A(\'Delete\',_href=URL(\'deletecomment\',args=[i.id,more,temp])))\n                    response.write(\' \', escape=False)\n                    pass\n                response.write(\'<br> \\n\', escape=False)\n                pass\n            response.write(\'\\n\', escape=False)\n            pass\n        response.write(\'\\n<br>\\n<h3>Post A Comment: </h3>\\n\', escape=False)\n        response.write(form)\n        response.write(\'\\n\', escape=False)\n    elif request.args(1)==\'7\' or request.args(1)==\'8\' or request.args(1)==\'9\':\n        response.write(\'\\n<div class="form" id="JSFiddle">\\n<table class="wide">\\n        <tbody>\\n            <tr>\\n                <td class="left">\\n                    <div style="font-family: Roboto Condensed; margin-bottom: 1em;" class="block person" data-category="person">\\n                        <p class="person nam1" id="nam">\', escape=False)\n        response.write(i.name)\n        response.write(\'</p>\\n                    </div>\\n                </td>\\n                <td class="right">\\n                    <div style="margin-bottom: 1em;" class="block contact" data-category="contact">\\n                        <div class="html-content e1" id="emai">\', escape=False)\n        response.write(i.email)\n        response.write(\'</div>\\n                        <br>\\n                        <span class="html-content ph1" id="ph">\', escape=False)\n        response.write(i.phone)\n        response.write(\'</span>\\n                    </div>\\n                </td>\\n            </tr>\\n        </tbody>\\n    </table>\\n    <div class="blocks">\\n        <div style="margin-bottom: 1em;" class="block" data-category="text" data-children="" data-id="0">\\n            <table class="wide">\\n                <tbody>\\n                    <tr>\\n                        <td class="left0">\\n                            <p style="font-family: Roboto Condensed;" class="title">Summary</p>\\n                        </td>\\n                        <td class="right0">\\n                            <div class="block-inner">\\n                                <div class="html-content sum1" id="su1">\', escape=False)\n        response.write(i.summary)\n        response.write(\'</div>\\n                            </div>\\n                        </td>\\n                    </tr>\\n                </tbody>\\n            </table>\\n        </div>\\n        <div style="margin-bottom: 1em;" class="block" data-category="experience" data-children="2" data-id="1">\\n            <table class="wide">\\n                <tbody>\\n                    <tr>\\n                        <td class="left0">\\n                            <p style="font-family: Roboto Condensed;" class="title">Work Experience</p>\\n                        </td>\\n                        <td class="right0">\\n                            <div class="block-inner">\\n                                <div class="html-content work1" id="wo1">\', escape=False)\n        response.write(i.works)\n        response.write(\'</div>\\n                    <br>\\n                    <div class="html-content"><b>Skill Set -</b><span class="html-content work2" id="wo2">\', escape=False)\n        response.write(i.skills)\n        response.write(\'</span></div>\\n                            </div>\\n                        </td>\\n                    </tr>\\n                </tbody>\\n            </table>\\n        </div>\\n        <div style="margin-bottom: 1em;" class="block" data-category="education" data-children="1" data-id="2">\\n            <table class="wide">\\n                <tbody>\\n                    <tr>\\n                        <td class="left0">\\n                            <p style="font-family: Roboto Condensed;" class="title">Education</p>\\n                        </td>\\n                        <td class="right0">\\n                            <div class="block-inner">\\n                                <div class="html-content edu1" id="ed1">\', escape=False)\n        response.write(i.education)\n        response.write(\'</div>\\n                    <br>\\n                    <div class="html-content">Your GPA -<b><span class="html-content edu2" id="ed2">\', escape=False)\n        response.write(i.gpa)\n        response.write(\'</span></b></div>\\n                            </div>\\n                        </td>\\n                    </tr>\\n                </tbody>\\n            </table>\\n        </div>\\n        <div style="margin-bottom: 1em;" class="block" data-category="text" data-children="" data-id="3">\\n            <table class="wide">\\n                <tbody>\\n                    <tr>\\n                        <td class="left0">\\n                            <p style="font-family: Roboto Condensed;" class="title">Additional Information</p>\\n                        </td>\\n                        <td class="right0">\\n                            <div class="block-inner">\\n                                <div class="html-content add1" id="ad1">\', escape=False)\n        response.write(i.addinfo)\n        response.write(\'</div>\\n                            </div>\\n                        </td>\\n                    </tr>\\n                </tbody>\\n            </table>\\n        </div>\\n    </div>\\n</div>\\n<div class="container text-center">\\n<div class="btn-group" >\\n        <button class="btn btn-info" onclick="return xepOnline.Formatter.Format(\\\'JSFiddle\\\', {render:\\\'download\\\'})">Generate PDF</button>\\n    <button class="btn btn-info" onclick="return xepOnline.Formatter.Format(\\\'JSFiddle\\\', {render:\\\'embed\\\', mimeType:\\\'image/png\\\'})">PNG @120dpi</button>\\n    \', escape=False)\n        more=i.id\n        response.write(\'\\n    \', escape=False)\n        response.write(A(\'Mark Resume\',callback=URL(\'default\', \'markresume\', args=[i.id]),target=\'change\', _class="btn btn-info"))\n        response.write(\'\\n    <button  class="btn btn-info" onclick="printDiv(\\\'JSFiddle\\\');">Print</button>\\n</div>\\n</div>\\n\\n\', escape=False)\n        if commenta:\n            response.write(\'\\n<h3>Comments</h3>\\n<br>\\n\', escape=False)\n            for i in commenta:\n                response.write(\'\\n    <b>\', escape=False)\n                response.write(db.auth_user[i.userid].first_name)\n                response.write(\' \', escape=False)\n                response.write(db.auth_user[i.userid].last_name)\n                response.write(\'</b> :\\n  \', escape=False)\n                response.write(i.body)\n                response.write(\' \', escape=False)\n                if i.userid == auth.user.id:\n                    response.write(\' : \', escape=False)\n                    response.write(A(\'Delete\',_href=URL(\'deletecomment\',args=[i.id,more,temp])))\n                    response.write(\' \', escape=False)\n                    pass\n                response.write(\'<br> \\n\', escape=False)\n                pass\n            response.write(\'\\n\', escape=False)\n            pass\n        response.write(\'\\n<br>\\n<h3>Post A Comment: </h3>\\n\', escape=False)\n        response.write(form)\n        response.write(\'\\n\\n\', escape=False)\n    else:\n        response.write(\'\\n\\n\\n<div class="form" id="JSFiddle">\\n    <table class="wide">\\n        <tbody>\\n            <tr>\\n                <td class="left">\\n                    <div class="block person" data-category="person" style="font-family: \\\'Roboto Condensed\\\'; margin-bottom: 1em;">\\n                        <p class="person nam1" id="nam">\', escape=False)\n        response.write(i.name)\n        response.write(\'</p>\\n                    </div>\\n                </td>\\n                <td class="right">\\n                    <div class="block contact" data-category="contact" style="margin-bottom: 1em;">\\n                        <div class="html-content e1" id="emai">\', escape=False)\n        response.write(i.email)\n        response.write(\'</div>\\n                        <br>\\n                        <span class="html-content ph1" id="ph">\', escape=False)\n        response.write(i.phone)\n        response.write(\'</span>\\n                    </div>\\n                </td>\\n            </tr>\\n        </tbody>\\n    </table>\\n    <div class="blocks">\\n        <div class="block" data-category="text" data-children="" data-id="0" style="margin-bottom: 1em;">\\n            <table class="wide title" cellspacing="0">\\n                <tbody>\\n                    <tr>\\n                        <td class="block-title">\\n                            <p class="title" style="font-family: \\\'Roboto Condensed\\\';">Summary</p>\\n                        </td>\\n                        <td class="block-title"></td>\\n                    </tr>\\n                </tbody>\\n            </table>\\n            <div class="block-inner">\\n                <div class="html-content sum1" id="su1">\', escape=False)\n        response.write(i.summary)\n        response.write(\'</div>\\n            </div>\\n        </div>\\n        <div class="block" data-category="experience" data-children="2" data-id="1" style="margin-bottom: 1em;">\\n            <table class="wide title" cellspacing="0">\\n                <tbody>\\n                    <tr>\\n                        <td class="block-title">\\n                            <p class="title" style="font-family: \\\'Roboto Condensed\\\';">Work Experience</p>\\n                        </td>\\n                        <td class="block-title"></td>\\n                    </tr>\\n                </tbody>\\n            </table>\\n            <div class="block-inner">\\n                <div class="child" data-id="1c0" data-category="experience" style="margin-bottom: 1em;">\\n                    <div class="html-content work1" id="wo1">\', escape=False)\n        response.write(i.works)\n        response.write(\'</div>\\n                    <br>\\n                    <div class="html-content"><b>Skill Set -</b><span class="html-content work2" id="wo2">\', escape=False)\n        response.write(i.skills)\n        response.write(\'</span></div>\\n                </div>\\n            </div>\\n        </div>\\n        <div class="block" data-category="education" data-children="1" data-id="2" style="margin-bottom: 1em;">\\n            <table class="wide title" cellspacing="0">\\n                <tbody>\\n                    <tr>\\n                        <td class="block-title">\\n                            <p class="title" style="font-family: \\\'Roboto Condensed\\\';">Education</p>\\n                        </td>\\n                        <td class="block-title"></td>\\n                    </tr>\\n                </tbody>\\n            </table>\\n            <div class="block-inner">\\n                <div class="last-child" data-id="2c0" data-category="education" style="margin-bottom: 1em;">\\n                    <div class="html-content edu1" id="ed1">\', escape=False)\n        response.write(i.education)\n        response.write(\'</div>\\n                    <br>\\n                    <div class="html-content">Your GPA -<b><span class="html-content edu2" id="ed2">\', escape=False)\n        response.write(i.gpa)\n        response.write(\'</span></b></div>\\n                </div>\\n            </div>\\n        </div>\\n        <div class="block" data-category="text" data-children="" data-id="3" style="margin-bottom: 1em;">\\n            <table class="wide title" cellspacing="0">\\n                <tbody>\\n                    <tr>\\n                        <td class="block-title">\\n                            <p class="title" style="font-family: \\\'Roboto Condensed\\\';">Additional Information</p>\\n                        </td>\\n                        <td class="block-title"></td>\\n                    </tr>\\n                </tbody>\\n            </table>\\n            <div class="block-inner">\\n                <div class="html-content add1" id="ad1">\', escape=False)\n        response.write(i.addinfo)\n        response.write(\'</div>\\n            </div>\\n        </div>\\n    </div>\\n<br>\\n<div class="container text-center">\\n<div class="btn-group" >\\n        <button class="btn btn-info" onclick="return xepOnline.Formatter.Format(\\\'JSFiddle\\\', {render:\\\'download\\\'})">Generate PDF</button>\\n    <button class="btn btn-info" onclick="return xepOnline.Formatter.Format(\\\'JSFiddle\\\', {render:\\\'embed\\\', mimeType:\\\'image/png\\\'})">PNG @120dpi</button>\\n    \', escape=False)\n        more=i.id\n        response.write(\'\\n    \', escape=False)\n        response.write(A(\'Mark Resume\',callback=URL(\'default\', \'markresume\', args=[i.id]),target=\'change\', _class="btn btn-info"))\n        response.write(\'\\n    <button  class="btn btn-info" onclick="printDiv(\\\'JSFiddle\\\');">Print</button>\\n</div>\\n</div>\\n\', escape=False)\n        if commenta:\n            response.write(\'\\n<h3>Comments</h3>\\n<br>\\n\', escape=False)\n            for i in commenta:\n                response.write(\'\\n    \', escape=False)\n                if db.auth_user[i.userid].Company_Name :\n                    response.write(\'\\n    <b>\', escape=False)\n                    response.write(db.auth_user-[i.userid].Company_Name)\n                    response.write(\'</b> :\', escape=False)\n                else:\n                    response.write(\'\\n    <b>\', escape=False)\n                    response.write(db.auth_user[i.userid].first_name)\n                    response.write(\' \', escape=False)\n                    response.write(db.auth_user[i.userid].last_name)\n                    response.write(\'</b> : \', escape=False)\n                    pass\n                response.write(\'\\n\\n  \', escape=False)\n                response.write(i.body)\n                response.write(\' \', escape=False)\n                if i.userid == auth.user.id:\n                    response.write(\' : \', escape=False)\n                    response.write(A(\'Delete\',_href=URL(\'deletecomment\',args=[i.id,more,temp])))\n                    response.write(\' \', escape=False)\n                    pass\n                response.write(\'<br><br>\\n\', escape=False)\n                pass\n            response.write(\'\\n\', escape=False)\n            pass\n        response.write(\'\\n<br>\\n<h3>Post A Comment: </h3>\\n\', escape=False)\n        response.write(form)\n        response.write(\'\\n\', escape=False)\n        pass\n    response.write(\'\\n\', escape=False)\n    pass\nresponse.write(\'\\n\\n<script src="https://code.jquery.com/jquery-1.12.0.min.js"></script>\\n<script src="http://www.cloudformatter.com/Resources/Pages/CSS2Pdf/Script/xepOnline.jqPlugin.js"></script>\\n\', escape=False)\nresponse.write(\'\\n        \', escape=False)\nresponse.write(\'\\n      </div>\\n\\n      \', escape=False)\nif right_sidebar_enabled:\n    response.write(\'\\n        <div class="col-md-3">\\n            \', escape=False)\n    response.write(\'\\n            <h3>Right Sidebar</h3>\\n            <p></p>\\n            \', escape=False)\n    response.write(\'\\n        </div>\\n      \', escape=False)\n    pass\nresponse.write(\'\\n\\n    </div>\\n\\n    \', escape=False)\nresponse.write(\' <!-- this is default footer -->\\n    \', escape=False)\nresponse.write(\'\\n    <!-- The javascript =============================== -->\\n    <script src="\', escape=False)\nresponse.write(URL(\'static\',\'js/bootstrap.min.js\'))\nresponse.write(\'"></script>\\n    <script src="\', escape=False)\nresponse.write(URL(\'static\',\'js/web2py-bootstrap3.js\'))\nresponse.write(\'"></script>\\n    \', escape=False)\nresponse.write(\'\\n    \', escape=False)\nif response.google_analytics_id:\n    response.write(\'\\n    <!-- Analytics ==================================== -->\\n    <script src="\', escape=False)\n    response.write(URL(\'static\',\'js/analytics.min.js\'))\n    response.write(\'"></script>\\n    <script type="text/javascript">\\n      analytics.initialize({\\n      \\\'Google Analytics\\\':{trackingId:\\\'\', escape=False)\n    response.write(response.google_analytics_id)\n    response.write("\'}\\n      });\\n    </script>\\n    ", escape=False)\n    pass\nresponse.write(\'\\n    <!-- Share ============================y============ -->\\n    <script src="\', escape=False)\nresponse.write(URL(\'static\',\'js/share.js\',vars=dict(static=URL(\'static\',\'images\'))))\nresponse.write(\'"></script>\\n  </body>\\n</html>\\n\', escape=False)'
p7
sS'snapshot'
p8
(dp9
S'exception'
p10
(dp11
S'__hash__'
p12
S"<method-wrapper '__hash__' of exceptions.AttributeError object>"
p13
sS'__setattr__'
p14
S"<method-wrapper '__setattr__' of exceptions.AttributeError object>"
p15
sS'__reduce_ex__'
p16
S'<built-in method __reduce_ex__ of exceptions.AttributeError object>'
p17
sS'__getslice__'
p18
S"<method-wrapper '__getslice__' of exceptions.AttributeError object>"
p19
sS'__getitem__'
p20
S"<method-wrapper '__getitem__' of exceptions.AttributeError object>"
p21
sS'__setstate__'
p22
S'<built-in method __setstate__ of exceptions.AttributeError object>'
p23
sS'args'
p24
S'("\'list\' object has no attribute \'Company_Name\'",)'
p25
sS'__reduce__'
p26
S'<built-in method __reduce__ of exceptions.AttributeError object>'
p27
sS'__str__'
p28
S"<method-wrapper '__str__' of exceptions.AttributeError object>"
p29
sS'__format__'
p30
S'<built-in method __format__ of exceptions.AttributeError object>'
p31
sS'__getattribute__'
p32
S"<method-wrapper '__getattribute__' of exceptions.AttributeError object>"
p33
sS'__class__'
p34
S"<type 'exceptions.AttributeError'>"
p35
sS'__unicode__'
p36
S'<built-in method __unicode__ of exceptions.AttributeError object>'
p37
sS'__delattr__'
p38
S"<method-wrapper '__delattr__' of exceptions.AttributeError object>"
p39
sS'__subclasshook__'
p40
S'<built-in method __subclasshook__ of type object>'
p41
sS'__repr__'
p42
S"<method-wrapper '__repr__' of exceptions.AttributeError object>"
p43
sS'__dict__'
p44
S'{}'
p45
sS'__sizeof__'
p46
S'<built-in method __sizeof__ of exceptions.AttributeError object>'
p47
sS'__doc__'
p48
S"'Attribute not found.'"
p49
sS'__init__'
p50
S"<method-wrapper '__init__' of exceptions.AttributeError object>"
p51
sS'__new__'
p52
S'<built-in method __new__ of type object>'
p53
ssS'evalue'
p54
S"'list' object has no attribute 'Company_Name'"
p55
sS'request'
p56
cgluon.html
XML_unpickle
p57
(S'sd\\\x00\x00<div><table><tr><td style="font-weight:bold;vertical-align:top;">ajax</td><td style="vertical-align:top;">:</td><td><div>False</div></td></tr><tr><td style="font-weight:bold;vertical-align:top;">application</td><td style="vertical-align:top;">:</td><td><div>resume</div></td></tr><tr><td style="font-weight:bold;vertical-align:top;">args</td><td style="vertical-align:top;">:</td><td><div><table><tr><td><div>7</div></td></tr><tr><td><div>1</div></td></tr></table></div></td></tr><tr><td style="font-weight:bold;vertical-align:top;">cid</td><td style="vertical-align:top;">:</td><td><div>None</div></td></tr><tr><td style="font-weight:bold;vertical-align:top;">client</td><td style="vertical-align:top;">:</td><td><div>127.0.0.1</div></td></tr><tr><td style="font-weight:bold;vertical-align:top;">controller</td><td style="vertical-align:top;">:</td><td><div>default</div></td></tr><tr><td style="font-weight:bold;vertical-align:top;">cookies</td><td style="vertical-align:top;">:</td><td><div><table><tr><td style="font-weight:bold;vertical-align:top;">session_id_admin</td><td style="vertical-align:top;">:</td><td><div>127.0.0.1-af876913-b3c0-4893-9030-0c1f139f54d2<table><tr><td style="font-weight:bold;vertical-align:top;">comment</td><td style="vertical-align:top;">:</td><td><div></div></td></tr><tr><td style="font-weight:bold;vertical-align:top;">domain</td><td style="vertical-align:top;">:</td><td><div></div></td></tr><tr><td style="font-weight:bold;vertical-align:top;">expires</td><td style="vertical-align:top;">:</td><td><div></div></td></tr><tr><td style="font-weight:bold;vertical-align:top;">httponly</td><td style="vertical-align:top;">:</td><td><div></div></td></tr><tr><td style="font-weight:bold;vertical-align:top;">max-age</td><td style="vertical-align:top;">:</td><td><div></div></td></tr><tr><td style="font-weight:bold;vertical-align:top;">path</td><td style="vertical-align:top;">:</td><td><div></div></td></tr><tr><td style="font-weight:bold;vertical-align:top;">secure</td><td style="vertical-align:top;">:</td><td><div></div></td></tr><tr><td style="font-weight:bold;vertical-align:top;">version</td><td style="vertical-align:top;">:</td><td><div></div></td></tr></table></div></td></tr><tr><td style="font-weight:bold;vertical-align:top;">session_id_resume</td><td style="vertical-align:top;">:</td><td><div>127.0.0.1-fb4773e0-a0ef-44f9-97f1-a127d57a6c0c<table><tr><td style="font-weight:bold;vertical-align:top;">comment</td><td style="vertical-align:top;">:</td><td><div></div></td></tr><tr><td style="font-weight:bold;vertical-align:top;">domain</td><td style="vertical-align:top;">:</td><td><div></div></td></tr><tr><td style="font-weight:bold;vertical-align:top;">expires</td><td style="vertical-align:top;">:</td><td><div></div></td></tr><tr><td style="font-weight:bold;vertical-align:top;">httponly</td><td style="vertical-align:top;">:</td><td><div></div></td></tr><tr><td style="font-weight:bold;vertical-align:top;">max-age</td><td style="vertical-align:top;">:</td><td><div></div></td></tr><tr><td style="font-weight:bold;vertical-align:top;">path</td><td style="vertical-align:top;">:</td><td><div></div></td></tr><tr><td style="font-weight:bold;vertical-align:top;">secure</td><td style="vertical-align:top;">:</td><td><div></div></td></tr><tr><td style="font-weight:bold;vertical-align:top;">version</td><td style="vertical-align:top;">:</td><td><div></div></td></tr></table></div></td></tr><tr><td style="font-weight:bold;vertical-align:top;">session_id_welcome</td><td style="vertical-align:top;">:</td><td><div>127.0.0.1-b79e8fb7-3020-4857-9e2e-1261dfb27954<table><tr><td style="font-weight:bold;vertical-align:top;">comment</td><td style="vertical-align:top;">:</td><td><div></div></td></tr><tr><td style="font-weight:bold;vertical-align:top;">domain</td><td style="vertical-align:top;">:</td><td><div></div></td></tr><tr><td style="font-weight:bold;vertical-align:top;">expires</td><td style="vertical-align:top;">:</td><td><div></div></td></tr><tr><td style="font-weight:bold;vertical-align:top;">httponly</td><td style="vertical-align:top;">:</td><td><div></div></td></tr><tr><td style="font-weight:bold;vertical-align:top;">max-age</td><td style="vertical-align:top;">:</td><td><div></div></td></tr><tr><td style="font-weight:bold;vertical-align:top;">path</td><td style="vertical-align:top;">:</td><td><div></div></td></tr><tr><td style="font-weight:bold;vertical-align:top;">secure</td><td style="vertical-align:top;">:</td><td><div></div></td></tr><tr><td style="font-weight:bold;vertical-align:top;">version</td><td style="vertical-align:top;">:</td><td><div></div></td></tr></table></div></td></tr></table></div></td></tr><tr><td style="font-weight:bold;vertical-align:top;">env</td><td style="vertical-align:top;">:</td><td><div><table><tr><td style="font-weight:bold;vertical-align:top;">HTTP_ACCEPT</td><td style="vertical-align:top;">:</td><td><div>text/html,application/xhtml+xml,application/xml;q=0.9,*/*;q=0.8</div></td></tr><tr><td style="font-weight:bold;vertical-align:top;">HTTP_ACCEPT_ENCODING</td><td style="vertical-align:top;">:</td><td><div>gzip, deflate</div></td></tr><tr><td style="font-weight:bold;vertical-align:top;">HTTP_ACCEPT_LANGUAGE</td><td style="vertical-align:top;">:</td><td><div>en-US,en;q=0.5</div></td></tr><tr><td style="font-weight:bold;vertical-align:top;">HTTP_CACHE_CONTROL</td><td style="vertical-align:top;">:</td><td><div>max-age=0</div></td></tr><tr><td style="font-weight:bold;vertical-align:top;">HTTP_CONNECTION</td><td style="vertical-align:top;">:</td><td><div>keep-alive</div></td></tr><tr><td style="font-weight:bold;vertical-align:top;">HTTP_COOKIE</td><td style="vertical-align:top;">:</td><td><div>session_id_welcome=127.0.0.1-b79e8fb7-3020-4857-9e2e-1261dfb27954; session_id_admin=127.0.0.1-af876913-b3c0-4893-9030-0c1f139f54d2; session_id_resume=127.0.0.1-fb4773e0-a0ef-44f9-97f1-a127d57a6c0c</div></td></tr><tr><td style="font-weight:bold;vertical-align:top;">HTTP_HOST</td><td style="vertical-align:top;">:</td><td><div>127.0.0.1:8000</div></td></tr><tr><td style="font-weight:bold;vertical-align:top;">HTTP_REFERER</td><td style="vertical-align:top;">:</td><td><div>http://127.0.0.1:8000/resume/default/templates1/7</div></td></tr><tr><td style="font-weight:bold;vertical-align:top;">HTTP_USER_AGENT</td><td style="vertical-align:top;">:</td><td><div>Mozilla/5.0 (X11; Ubuntu; Linux x86_64; rv:45.0) Gecko/20100101 Firefox/45.0</div></td></tr><tr><td style="font-weight:bold;vertical-align:top;">PATH_INFO</td><td style="vertical-align:top;">:</td><td><div>/resume/default/moreresume1/7/1</div></td></tr><tr><td style="font-weight:bold;vertical-align:top;">QUERY_STRING</td><td style="vertical-align:top;">:</td><td><div></div></td></tr><tr><td style="font-weight:bold;vertical-align:top;">REMOTE_ADDR</td><td style="vertical-align:top;">:</td><td><div>127.0.0.1</div></td></tr><tr><td style="font-weight:bold;vertical-align:top;">REMOTE_PORT</td><td style="vertical-align:top;">:</td><td><div>53636</div></td></tr><tr><td style="font-weight:bold;vertical-align:top;">REQUEST_METHOD</td><td style="vertical-align:top;">:</td><td><div>GET</div></td></tr><tr><td style="font-weight:bold;vertical-align:top;">SCRIPT_NAME</td><td style="vertical-align:top;">:</td><td><div></div></td></tr><tr><td style="font-weight:bold;vertical-align:top;">SERVER_NAME</td><td style="vertical-align:top;">:</td><td><div>saiteja-Vostro-3558</div></td></tr><tr><td style="font-weight:bold;vertical-align:top;">SERVER_PORT</td><td style="vertical-align:top;">:</td><td><div>8000</div></td></tr><tr><td style="font-weight:bold;vertical-align:top;">SERVER_PROTOCOL</td><td style="vertical-align:top;">:</td><td><div>HTTP/1.1</div></td></tr><tr><td style="font-weight:bold;vertical-align:top;">SERVER_SOFTWARE</td><td style="vertical-align:top;">:</td><td><div>Rocket 1.2.6</div></td></tr><tr><td style="font-weight:bold;vertical-align:top;">app_folders</td><td style="vertical-align:top;">:</td><td><div>set([&#x27;/home/saiteja/Desktop/web2py/applications/resume/&#x27;, &#x27;/home/saiteja/Desktop/web2py/applications/admin/&#x27;, &#x27;/home/saiteja/Desktop/web2py/applications/welcome/&#x27;])</div></td></tr><tr><td style="font-weight:bold;vertical-align:top;">applications_parent</td><td style="vertical-align:top;">:</td><td><div>/home/saiteja/Desktop/web2py</div></td></tr><tr><td style="font-weight:bold;vertical-align:top;">cmd_args</td><td style="vertical-align:top;">:</td><td><div><table></table></div></td></tr><tr><td style="font-weight:bold;vertical-align:top;">cmd_options</td><td style="vertical-align:top;">:</td><td><div>&lt;Values at 0x7f73ce9321b8: {&#x27;verbose&#x27;: False, &#x27;ip&#x27;: &#x27;127.0.0.1&#x27;, &#x27;debuglevel&#x27;: 30, &#x27;with_scheduler&#x27;: False, &#x27;ips&#x27;: [&#x27;127.0.1.1&#x27;], &#x27;shutdown_timeout&#x27;: 5, &#x27;taskbar&#x27;: False, &#x27;with_coverage&#x27;: False, &#x27;scheduler_groups&#x27;: None, &#x27;port&#x27;: 8000, &#x27;maxthreads&#x27;: None, &#x27;softcron&#x27;: False, &#x27;server_name&#x27;: &#x27;saiteja-Vostro-3558&#x27;, &#x27;bpython&#x27;: False, &#x27;nogui&#x27;: False, &#x27;pid_filename&#x27;: &#x27;httpserver.pid&#x27;, &#x27;print_errors&#x27;: False, &#x27;extcron&#x27;: False, &#x27;runcron&#x27;: False, &#x27;run_system_tests&#x27;: False, &#x27;test&#x27;: None, &#x27;folder&#x27;: &#x27;/home/saiteja/Desktop/web2py&#x27;, &#x27;config&#x27;: &#x27;&#x27;, &#x27;minthreads&#x27;: None, &#x27;shell&#x27;: None, &#x27;run&#x27;: &#x27;&#x27;, &#x27;log_filename&#x27;: &#x27;httpserver.log&#x27;, &#x27;profiler_dir&#x27;: None, &#x27;args&#x27;: [&#x27;&#x27;], &#x27;socket_timeout&#x27;: 5, &#x27;ssl_ca_certificate&#x27;: None, &#x27;scheduler&#x27;: None, &#x27;interfaces&#x27;: None, &#x27;ssl_private_key&#x27;: &#x27;&#x27;, &#x27;gae&#x27;: None, &#x27;password&#x27;: &#x27;&lt;ask&gt;&#x27;, &#x27;request_queue_size&#x27;: 5, &#x27;ssl_certificate&#x27;: &#x27;&#x27;, &#x27;cronjob&#x27;: False, &#x27;numthreads&#x27;: None, &#x27;quiet&#x27;: False, &#x27;import_models&#x27;: False, &#x27;timeout&#x27;: 10, &#x27;plain&#x27;: False, &#x27;nobanner&#x27;: False}&gt;</div></td></tr><tr><td style="font-weight:bold;vertical-align:top;">db_sessions</td><td style="vertical-align:top;">:</td><td><div>set([])</div></td></tr><tr><td style="font-weight:bold;vertical-align:top;">debugging</td><td style="vertical-align:top;">:</td><td><div>True</div></td></tr><tr><td style="font-weight:bold;vertical-align:top;">gluon_parent</td><td style="vertical-align:top;">:</td><td><div>/home/saiteja/Desktop/web2py</div></td></tr><tr><td style="font-weight:bold;vertical-align:top;">http_accept</td><td style="vertical-align:top;">:</td><td><div>text/html,application/xhtml+xml,application/xml;q=0.9,*/*;q=0.8</div></td></tr><tr><td style="font-weight:bold;vertical-align:top;">http_accept_encoding</td><td style="vertical-align:top;">:</td><td><div>gzip, deflate</div></td></tr><tr><td style="font-weight:bold;vertical-align:top;">http_accept_language</td><td style="vertical-align:top;">:</td><td><div>en-US,en;q=0.5</div></td></tr><tr><td style="font-weight:bold;vertical-align:top;">http_cache_control</td><td style="vertical-align:top;">:</td><td><div>max-age=0</div></td></tr><tr><td style="font-weight:bold;vertical-align:top;">http_connection</td><td style="vertical-align:top;">:</td><td><div>keep-alive</div></td></tr><tr><td style="font-weight:bold;vertical-align:top;">http_cookie</td><td style="vertical-align:top;">:</td><td><div>session_id_welcome=127.0.0.1-b79e8fb7-3020-4857-9e2e-1261dfb27954; session_id_admin=127.0.0.1-af876913-b3c0-4893-9030-0c1f139f54d2; session_id_resume=127.0.0.1-fb4773e0-a0ef-44f9-97f1-a127d57a6c0c</div></td></tr><tr><td style="font-weight:bold;vertical-align:top;">http_host</td><td style="vertical-align:top;">:</td><td><div>127.0.0.1:8000</div></td></tr><tr><td style="font-weight:bold;vertical-align:top;">http_referer</td><td style="vertical-align:top;">:</td><td><div>http://127.0.0.1:8000/resume/default/templates1/7</div></td></tr><tr><td style="font-weight:bold;vertical-align:top;">http_user_agent</td><td style="vertical-align:top;">:</td><td><div>Mozilla/5.0 (X11; Ubuntu; Linux x86_64; rv:45.0) Gecko/20100101 Firefox/45.0</div></td></tr><tr><td style="font-weight:bold;vertical-align:top;">is_jython</td><td style="vertical-align:top;">:</td><td><div>False</div></td></tr><tr><td style="font-weight:bold;vertical-align:top;">is_pypy</td><td style="vertical-align:top;">:</td><td><div>False</div></td></tr><tr><td style="font-weight:bold;vertical-align:top;">is_source</td><td style="vertical-align:top;">:</td><td><div>True</div></td></tr><tr><td style="font-weight:bold;vertical-align:top;">local_hosts</td><td style="vertical-align:top;">:</td><td><div><table><tr><td><div>::1</div></td></tr><tr><td><div>127.0.1.1</div></td></tr><tr><td><div>::ffff:127.0.0.1</div></td></tr><tr><td><div>127.0.0.1</div></td></tr><tr><td><div>saiteja-Vostro-3558</div></td></tr></table></div></td></tr><tr><td style="font-weight:bold;vertical-align:top;">path_info</td><td style="vertical-align:top;">:</td><td><div>/resume/default/moreresume1/7/1</div></td></tr><tr><td style="font-weight:bold;vertical-align:top;">query_string</td><td style="vertical-align:top;">:</td><td><div></div></td></tr><tr><td style="font-weight:bold;vertical-align:top;">remote_addr</td><td style="vertical-align:top;">:</td><td><div>127.0.0.1</div></td></tr><tr><td style="font-weight:bold;vertical-align:top;">remote_port</td><td style="vertical-align:top;">:</td><td><div>53636</div></td></tr><tr><td style="font-weight:bold;vertical-align:top;">request_method</td><td style="vertical-align:top;">:</td><td><div>GET</div></td></tr><tr><td style="font-weight:bold;vertical-align:top;">request_uri</td><td style="vertical-align:top;">:</td><td><div>/resume/default/moreresume1/7/1</div></td></tr><tr><td style="font-weight:bold;vertical-align:top;">script_name</td><td style="vertical-align:top;">:</td><td><div></div></td></tr><tr><td style="font-weight:bold;vertical-align:top;">server_name</td><td style="vertical-align:top;">:</td><td><div>saiteja-Vostro-3558</div></td></tr><tr><td style="font-weight:bold;vertical-align:top;">server_port</td><td style="vertical-align:top;">:</td><td><div>8000</div></td></tr><tr><td style="font-weight:bold;vertical-align:top;">server_protocol</td><td style="vertical-align:top;">:</td><td><div>HTTP/1.1</div></td></tr><tr><td style="font-weight:bold;vertical-align:top;">server_software</td><td style="vertical-align:top;">:</td><td><div>Rocket 1.2.6</div></td></tr><tr><td style="font-weight:bold;vertical-align:top;">web2py_path</td><td style="vertical-align:top;">:</td><td><div>/home/saiteja/Desktop/web2py</div></td></tr><tr><td style="font-weight:bold;vertical-align:top;">web2py_version</td><td style="vertical-align:top;">:</td><td><div>2.13.4-stable+timestamp.2015.12.26.04.59.39</div></td></tr><tr><td style="font-weight:bold;vertical-align:top;">wsgi.errors</td><td style="vertical-align:top;">:</td><td><div>&lt;open file &#x27;&lt;stderr&gt;&#x27;, mode &#x27;w&#x27; at 0x7f73d2f961e0&gt;</div></td></tr><tr><td style="font-weight:bold;vertical-align:top;">wsgi.file_wrapper</td><td style="vertical-align:top;">:</td><td><div>&lt;class wsgiref.util.FileWrapper at 0x7f73ce826940&gt;</div></td></tr><tr><td style="font-weight:bold;vertical-align:top;">wsgi.input</td><td style="vertical-align:top;">:</td><td><div>&lt;socket._fileobject object at 0x7f7391bc2cd0&gt;</div></td></tr><tr><td style="font-weight:bold;vertical-align:top;">wsgi.multiprocess</td><td style="vertical-align:top;">:</td><td><div>False</div></td></tr><tr><td style="font-weight:bold;vertical-align:top;">wsgi.multithread</td><td style="vertical-align:top;">:</td><td><div>True</div></td></tr><tr><td style="font-weight:bold;vertical-align:top;">wsgi.run_once</td><td style="vertical-align:top;">:</td><td><div>False</div></td></tr><tr><td style="font-weight:bold;vertical-align:top;">wsgi.url_scheme</td><td style="vertical-align:top;">:</td><td><div>http</div></td></tr><tr><td style="font-weight:bold;vertical-align:top;">wsgi.version</td><td style="vertical-align:top;">:</td><td><div><table><tr><td><div>1</div></td></tr><tr><td><div>0</div></td></tr></table></div></td></tr><tr><td style="font-weight:bold;vertical-align:top;">wsgi_errors</td><td style="vertical-align:top;">:</td><td><div>&lt;open file &#x27;&lt;stderr&gt;&#x27;, mode &#x27;w&#x27; at 0x7f73d2f961e0&gt;</div></td></tr><tr><td style="font-weight:bold;vertical-align:top;">wsgi_file_wrapper</td><td style="vertical-align:top;">:</td><td><div>&lt;class wsgiref.util.FileWrapper at 0x7f73ce826940&gt;</div></td></tr><tr><td style="font-weight:bold;vertical-align:top;">wsgi_input</td><td style="vertical-align:top;">:</td><td><div>&lt;socket._fileobject object at 0x7f7391bc2cd0&gt;</div></td></tr><tr><td style="font-weight:bold;vertical-align:top;">wsgi_multiprocess</td><td style="vertical-align:top;">:</td><td><div>False</div></td></tr><tr><td style="font-weight:bold;vertical-align:top;">wsgi_multithread</td><td style="vertical-align:top;">:</td><td><div>True</div></td></tr><tr><td style="font-weight:bold;vertical-align:top;">wsgi_run_once</td><td style="vertical-align:top;">:</td><td><div>False</div></td></tr><tr><td style="font-weight:bold;vertical-align:top;">wsgi_url_scheme</td><td style="vertical-align:top;">:</td><td><div>http</div></td></tr><tr><td style="font-weight:bold;vertical-align:top;">wsgi_version</td><td style="vertical-align:top;">:</td><td><div><table><tr><td><div>1</div></td></tr><tr><td><div>0</div></td></tr></table></div></td></tr></table></div></td></tr><tr><td style="font-weight:bold;vertical-align:top;">extension</td><td style="vertical-align:top;">:</td><td><div>html</div></td></tr><tr><td style="font-weight:bold;vertical-align:top;">folder</td><td style="vertical-align:top;">:</td><td><div>/home/saiteja/Desktop/web2py/applications/resume/</div></td></tr><tr><td style="font-weight:bold;vertical-align:top;">function</td><td style="vertical-align:top;">:</td><td><div>moreresume1</div></td></tr><tr><td style="font-weight:bold;vertical-align:top;">global_settings</td><td style="vertical-align:top;">:</td><td><div><table><tr><td style="font-weight:bold;vertical-align:top;">app_folders</td><td style="vertical-align:top;">:</td><td><div>set([&#x27;/home/saiteja/Desktop/web2py/applications/resume/&#x27;, &#x27;/home/saiteja/Desktop/web2py/applications/admin/&#x27;, &#x27;/home/saiteja/Desktop/web2py/applications/welcome/&#x27;])</div></td></tr><tr><td style="font-weight:bold;vertical-align:top;">applications_parent</td><td style="vertical-align:top;">:</td><td><div>/home/saiteja/Desktop/web2py</div></td></tr><tr><td style="font-weight:bold;vertical-align:top;">cmd_args</td><td style="vertical-align:top;">:</td><td><div><table></table></div></td></tr><tr><td style="font-weight:bold;vertical-align:top;">cmd_options</td><td style="vertical-align:top;">:</td><td><div>&lt;Values at 0x7f73ce9321b8: {&#x27;verbose&#x27;: False, &#x27;ip&#x27;: &#x27;127.0.0.1&#x27;, &#x27;debuglevel&#x27;: 30, &#x27;with_scheduler&#x27;: False, &#x27;ips&#x27;: [&#x27;127.0.1.1&#x27;], &#x27;shutdown_timeout&#x27;: 5, &#x27;taskbar&#x27;: False, &#x27;with_coverage&#x27;: False, &#x27;scheduler_groups&#x27;: None, &#x27;port&#x27;: 8000, &#x27;maxthreads&#x27;: None, &#x27;softcron&#x27;: False, &#x27;server_name&#x27;: &#x27;saiteja-Vostro-3558&#x27;, &#x27;bpython&#x27;: False, &#x27;nogui&#x27;: False, &#x27;pid_filename&#x27;: &#x27;httpserver.pid&#x27;, &#x27;print_errors&#x27;: False, &#x27;extcron&#x27;: False, &#x27;runcron&#x27;: False, &#x27;run_system_tests&#x27;: False, &#x27;test&#x27;: None, &#x27;folder&#x27;: &#x27;/home/saiteja/Desktop/web2py&#x27;, &#x27;config&#x27;: &#x27;&#x27;, &#x27;minthreads&#x27;: None, &#x27;shell&#x27;: None, &#x27;run&#x27;: &#x27;&#x27;, &#x27;log_filename&#x27;: &#x27;httpserver.log&#x27;, &#x27;profiler_dir&#x27;: None, &#x27;args&#x27;: [&#x27;&#x27;], &#x27;socket_timeout&#x27;: 5, &#x27;ssl_ca_certificate&#x27;: None, &#x27;scheduler&#x27;: None, &#x27;interfaces&#x27;: None, &#x27;ssl_private_key&#x27;: &#x27;&#x27;, &#x27;gae&#x27;: None, &#x27;password&#x27;: &#x27;&lt;ask&gt;&#x27;, &#x27;request_queue_size&#x27;: 5, &#x27;ssl_certificate&#x27;: &#x27;&#x27;, &#x27;cronjob&#x27;: False, &#x27;numthreads&#x27;: None, &#x27;quiet&#x27;: False, &#x27;import_models&#x27;: False, &#x27;timeout&#x27;: 10, &#x27;plain&#x27;: False, &#x27;nobanner&#x27;: False}&gt;</div></td></tr><tr><td style="font-weight:bold;vertical-align:top;">db_sessions</td><td style="vertical-align:top;">:</td><td><div>set([])</div></td></tr><tr><td style="font-weight:bold;vertical-align:top;">debugging</td><td style="vertical-align:top;">:</td><td><div>True</div></td></tr><tr><td style="font-weight:bold;vertical-align:top;">gluon_parent</td><td style="vertical-align:top;">:</td><td><div>/home/saiteja/Desktop/web2py</div></td></tr><tr><td style="font-weight:bold;vertical-align:top;">is_jython</td><td style="vertical-align:top;">:</td><td><div>False</div></td></tr><tr><td style="font-weight:bold;vertical-align:top;">is_pypy</td><td style="vertical-align:top;">:</td><td><div>False</div></td></tr><tr><td style="font-weight:bold;vertical-align:top;">is_source</td><td style="vertical-align:top;">:</td><td><div>True</div></td></tr><tr><td style="font-weight:bold;vertical-align:top;">local_hosts</td><td style="vertical-align:top;">:</td><td><div><table><tr><td><div>::1</div></td></tr><tr><td><div>127.0.1.1</div></td></tr><tr><td><div>::ffff:127.0.0.1</div></td></tr><tr><td><div>127.0.0.1</div></td></tr><tr><td><div>saiteja-Vostro-3558</div></td></tr></table></div></td></tr><tr><td style="font-weight:bold;vertical-align:top;">web2py_version</td><td style="vertical-align:top;">:</td><td><div>2.13.4-stable+timestamp.2015.12.26.04.59.39</div></td></tr></table></div></td></tr><tr><td style="font-weight:bold;vertical-align:top;">is_https</td><td style="vertical-align:top;">:</td><td><div>False</div></td></tr><tr><td style="font-weight:bold;vertical-align:top;">is_local</td><td style="vertical-align:top;">:</td><td><div>True</div></td></tr><tr><td style="font-weight:bold;vertical-align:top;">is_restful</td><td style="vertical-align:top;">:</td><td><div>False</div></td></tr><tr><td style="font-weight:bold;vertical-align:top;">is_scheduler</td><td style="vertical-align:top;">:</td><td><div>False</div></td></tr><tr><td style="font-weight:bold;vertical-align:top;">is_shell</td><td style="vertical-align:top;">:</td><td><div>False</div></td></tr><tr><td style="font-weight:bold;vertical-align:top;">now</td><td style="vertical-align:top;">:</td><td><div>datetime.datetime(2016, 4, 30, 14, 17, 40, 251618)</div></td></tr><tr><td style="font-weight:bold;vertical-align:top;">raw_args</td><td style="vertical-align:top;">:</td><td><div>7/1</div></td></tr><tr><td style="font-weight:bold;vertical-align:top;">raw_extension</td><td style="vertical-align:top;">:</td><td><div>None</div></td></tr><tr><td style="font-weight:bold;vertical-align:top;">url</td><td style="vertical-align:top;">:</td><td><div>/resume/default/moreresume1/7/1</div></td></tr><tr><td style="font-weight:bold;vertical-align:top;">utcnow</td><td style="vertical-align:top;">:</td><td><div>datetime.datetime(2016, 4, 30, 8, 47, 40, 251683)</div></td></tr><tr><td style="font-weight:bold;vertical-align:top;">wsgi</td><td style="vertical-align:top;">:</td><td><div>&lt;gluon.main.LazyWSGI object at 0x7f73b0169f10&gt;</div></td></tr></table></div>'
tRp58
sS'frames'
p59
(lp60
(dp61
S'file'
p62
S'/home/saiteja/Desktop/web2py/gluon/restricted.py'
p63
sS'dump'
p64
(dp65
S'environment'
p66
S"{'A': <class 'gluon.html.A'>, 'ANY_OF': <class 'gluon.validators.ANY_OF'>, 'ASSIGNJS': <function ASSIGNJS>, 'AppConfig': <function AppConfig>, 'Auth': <class 'gluon.tools.Auth'>, 'B': <class 'gluon.html.B'>, 'BEAUTIFY': <class 'gluon.html.BEAUTIFY'>, 'BODY': <class 'gluon.html.BODY'>, 'BR': <class 'gluon.html.BR'>, 'BUTTON': <class 'gluon.html.BUTTON'>, ...}"
p67
sS'ccode'
p68
S'<code object <module> at 0x7f73ce5dee30, file "/...s/resume/views/default/moreresume1.html", line 1>'
p69
ssS'lnum'
p70
I227
sS'lines'
p71
(dp72
I224
S'            ccode = code'
p73
sI225
S'        else:'
p74
sI226
S'            ccode = compile2(code, layer)'
p75
sI227
S'        exec ccode in environment'
p76
sI228
S'    except HTTP:'
p77
sI229
S'        raise'
p78
sI230
S'    except RestrictedError:'
p79
sI231
S'        # do not encapsulate (obfuscate) the original RestrictedError'
p80
sI222
S'    try:'
p81
sI223
S'        if isinstance(code, types.CodeType):'
p82
ssS'call'
p83
S'(code=\'response.write(\\\'<!DOCTYPE html>\\\\n<!--[if (gt IE ..."></script>\\\\n  </body>\\\\n</html>\\\\n\\\', escape=False)\', environment={\'A\': <class \'gluon.html.A\'>, \'ANY_OF\': <class \'gluon.validators.ANY_OF\'>, \'ASSIGNJS\': <function ASSIGNJS>, \'AppConfig\': <function AppConfig>, \'Auth\': <class \'gluon.tools.Auth\'>, \'B\': <class \'gluon.html.B\'>, \'BEAUTIFY\': <class \'gluon.html.BEAUTIFY\'>, \'BODY\': <class \'gluon.html.BODY\'>, \'BR\': <class \'gluon.html.BR\'>, \'BUTTON\': <class \'gluon.html.BUTTON\'>, ...}, layer=\'/home/saiteja/Desktop/web2py/applications/resume/views/default/moreresume1.html\')'
p84
sS'func'
p85
S'restricted'
p86
sa(dp87
g62
S'/home/saiteja/Desktop/web2py/applications/resume/views/default/moreresume1.html'
p88
sg64
(dp89
S'color'
p90
S'undefined'
p91
ssg70
I249
sg71
(dp92
I256
S"                    response.write('</b> : ', escape=False)"
p93
sI257
S'                    pass'
p94
sI258
S"                response.write('\\n\\n  ', escape=False)"
p95
sI259
S'                response.write(i.body)'
p96
sI240
S"        response.write('\\n    ', escape=False)"
p97
sI241
S'        response.write(A(\'Mark Resume\',callback=URL(\'default\', \'markresume\', args=[i.id]),target=\'change\', _class="btn btn-info"))'
p98
sI242
S'        response.write(\'\\n    <button  class="btn btn-info" onclick="printDiv(\\\'JSFiddle\\\');">Print</button>\\n</div>\\n</div>\\n\', escape=False)'
p99
sI243
S'        if commenta:'
p100
sI244
S"            response.write('\\n<h3>Comments</h3>\\n<br>\\n', escape=False)"
p101
sI245
S'            for i in commenta:'
p102
sI246
S"                response.write('\\n    ', escape=False)"
p103
sI247
S'                if db.auth_user[i.userid].Company_Name :'
p104
sI248
S"                    response.write('\\n    <b>', escape=False)"
p105
sI249
S'                    response.write(db.auth_user-[i.userid].Company_Name)'
p106
sI250
S"                    response.write('</b> :', escape=False)"
p107
sI251
S'                else:'
p108
sI252
S"                    response.write('\\n    <b>', escape=False)"
p109
sI253
S'                    response.write(db.auth_user[i.userid].first_name)'
p110
sI254
S"                    response.write(' ', escape=False)"
p111
sI255
S'                    response.write(db.auth_user[i.userid].last_name)'
p112
ssg83
S'()'
p113
sg85
S'<module>'
p114
sasS'pyver'
p115
S'Python 2.7.6: /usr/bin/python (prefix: /usr)'
p116
sS'session'
p117
g57
(S's!\x0f\x00\x00<div><table><tr><td style="font-weight:bold;vertical-align:top;">auth</td><td style="vertical-align:top;">:</td><td><div><table><tr><td style="font-weight:bold;vertical-align:top;">expiration</td><td style="vertical-align:top;">:</td><td><div>3600</div></td></tr><tr><td style="font-weight:bold;vertical-align:top;">hmac_key</td><td style="vertical-align:top;">:</td><td><div>c9abc9b3-6c8d-4d2c-ae69-87b85790751a</div></td></tr><tr><td style="font-weight:bold;vertical-align:top;">last_visit</td><td style="vertical-align:top;">:</td><td><div>datetime.datetime(2016, 4, 30, 14, 16, 8, 86257)</div></td></tr><tr><td style="font-weight:bold;vertical-align:top;">remember_me</td><td style="vertical-align:top;">:</td><td><div>False</div></td></tr><tr><td style="font-weight:bold;vertical-align:top;">user</td><td style="vertical-align:top;">:</td><td><div><table><tr><td style="font-weight:bold;vertical-align:top;">Account_Type</td><td style="vertical-align:top;">:</td><td><div><table><tr><td><div>Individual</div></td></tr></table></div></td></tr><tr><td style="font-weight:bold;vertical-align:top;">City</td><td style="vertical-align:top;">:</td><td><div>sasas</div></td></tr><tr><td style="font-weight:bold;vertical-align:top;">Company_Location</td><td style="vertical-align:top;">:</td><td><div>saasasas</div></td></tr><tr><td style="font-weight:bold;vertical-align:top;">Company_Name</td><td style="vertical-align:top;">:</td><td><div>asasas</div></td></tr><tr><td style="font-weight:bold;vertical-align:top;">Contact_Number</td><td style="vertical-align:top;">:</td><td><div>12356487</div></td></tr><tr><td style="font-weight:bold;vertical-align:top;">Country</td><td style="vertical-align:top;">:</td><td><div><table></table></div></td></tr><tr><td style="font-weight:bold;vertical-align:top;">Date_of_Birth</td><td style="vertical-align:top;">:</td><td><div>datetime.date(2016, 4, 17)</div></td></tr><tr><td style="font-weight:bold;vertical-align:top;">Nationality</td><td style="vertical-align:top;">:</td><td><div><table><tr><td><div>Australia</div></td></tr></table></div></td></tr><tr><td style="font-weight:bold;vertical-align:top;">Profile_Photo</td><td style="vertical-align:top;">:</td><td><div>auth_user.Profile_Photo.b3df76686877af75.6c6f676f2e706e67.png</div></td></tr><tr><td style="font-weight:bold;vertical-align:top;">email</td><td style="vertical-align:top;">:</td><td><div>sai@gmail.com</div></td></tr><tr><td style="font-weight:bold;vertical-align:top;">first_name</td><td style="vertical-align:top;">:</td><td><div>sai</div></td></tr><tr><td style="font-weight:bold;vertical-align:top;">gender</td><td style="vertical-align:top;">:</td><td><div><table><tr><td><div>Male</div></td></tr></table></div></td></tr><tr><td style="font-weight:bold;vertical-align:top;">id</td><td style="vertical-align:top;">:</td><td><div>1L</div></td></tr><tr><td style="font-weight:bold;vertical-align:top;">last_name</td><td style="vertical-align:top;">:</td><td><div>teja</div></td></tr><tr><td style="font-weight:bold;vertical-align:top;">registration_id</td><td style="vertical-align:top;">:</td><td><div></div></td></tr><tr><td style="font-weight:bold;vertical-align:top;">registration_key</td><td style="vertical-align:top;">:</td><td><div></div></td></tr><tr><td style="font-weight:bold;vertical-align:top;">reset_password_key</td><td style="vertical-align:top;">:</td><td><div></div></td></tr></table></div></td></tr><tr><td style="font-weight:bold;vertical-align:top;">user_groups</td><td style="vertical-align:top;">:</td><td><div><table><tr><td style="font-weight:bold;vertical-align:top;">1</td><td style="vertical-align:top;">:</td><td><div>user_1</div></td></tr></table></div></td></tr></table></div></td></tr><tr><td style="font-weight:bold;vertical-align:top;">flash</td><td style="vertical-align:top;">:</td><td><div>None</div></td></tr></table></div>'
tRp118
sS'etype'
p119
S"<type 'exceptions.AttributeError'>"
p120
sS'date'
p121
S'Sat Apr 30 14:17:40 2016'
p122
sS'response'
p123
g57
(S's\xb7"\x00\x00<div><table><tr><td style="font-weight:bold;vertical-align:top;">body</td><td style="vertical-align:top;">:</td><td><div>&lt;cStringIO.StringO object at 0x7f7391b846c0&gt;</div></td></tr><tr><td style="font-weight:bold;vertical-align:top;">cookies</td><td style="vertical-align:top;">:</td><td><div><table><tr><td style="font-weight:bold;vertical-align:top;">session_id_resume</td><td style="vertical-align:top;">:</td><td><div>127.0.0.1-fb4773e0-a0ef-44f9-97f1-a127d57a6c0c<table><tr><td style="font-weight:bold;vertical-align:top;">comment</td><td style="vertical-align:top;">:</td><td><div></div></td></tr><tr><td style="font-weight:bold;vertical-align:top;">domain</td><td style="vertical-align:top;">:</td><td><div></div></td></tr><tr><td style="font-weight:bold;vertical-align:top;">expires</td><td style="vertical-align:top;">:</td><td><div></div></td></tr><tr><td style="font-weight:bold;vertical-align:top;">httponly</td><td style="vertical-align:top;">:</td><td><div></div></td></tr><tr><td style="font-weight:bold;vertical-align:top;">max-age</td><td style="vertical-align:top;">:</td><td><div></div></td></tr><tr><td style="font-weight:bold;vertical-align:top;">path</td><td style="vertical-align:top;">:</td><td><div>/</div></td></tr><tr><td style="font-weight:bold;vertical-align:top;">secure</td><td style="vertical-align:top;">:</td><td><div></div></td></tr><tr><td style="font-weight:bold;vertical-align:top;">version</td><td style="vertical-align:top;">:</td><td><div></div></td></tr></table></div></td></tr></table></div></td></tr><tr><td style="font-weight:bold;vertical-align:top;">delimiters</td><td style="vertical-align:top;">:</td><td><div><table><tr><td><div>{{</div></td></tr><tr><td><div>}}</div></td></tr></table></div></td></tr><tr><td style="font-weight:bold;vertical-align:top;">files</td><td style="vertical-align:top;">:</td><td><div><table><tr><td><div>/resume/static/js/jquery.js</div></td></tr><tr><td><div>/resume/static/css/calendar.css</div></td></tr><tr><td><div>/resume/static/js/calendar.js</div></td></tr><tr><td><div>/resume/static/js/web2py.js</div></td></tr></table></div></td></tr><tr><td style="font-weight:bold;vertical-align:top;">flash</td><td style="vertical-align:top;">:</td><td><div></div></td></tr><tr><td style="font-weight:bold;vertical-align:top;">form_label_separator</td><td style="vertical-align:top;">:</td><td><div></div></td></tr><tr><td style="font-weight:bold;vertical-align:top;">formstyle</td><td style="vertical-align:top;">:</td><td><div>bootstrap3_inline</div></td></tr><tr><td style="font-weight:bold;vertical-align:top;">generic_patterns</td><td style="vertical-align:top;">:</td><td><div><table><tr><td><div>*</div></td></tr></table></div></td></tr><tr><td style="font-weight:bold;vertical-align:top;">google_analytics_id</td><td style="vertical-align:top;">:</td><td><div>None</div></td></tr><tr><td style="font-weight:bold;vertical-align:top;">headers</td><td style="vertical-align:top;">:</td><td><div><table><tr><td style="font-weight:bold;vertical-align:top;">X-Powered-By</td><td style="vertical-align:top;">:</td><td><div>web2py</div></td></tr></table></div></td></tr><tr><td style="font-weight:bold;vertical-align:top;">logo</td><td style="vertical-align:top;">:</td><td><div><a class="navbar-brand" href="/resume/default/index" id="web2py-logo"><b>Resume Builder</b>&trade;&nbsp;</a></div></td></tr><tr><td style="font-weight:bold;vertical-align:top;">menu</td><td style="vertical-align:top;">:</td><td><div><table><tr><td><div><table><tr><td><div>Search</div></td></tr><tr><td><div>False</div></td></tr><tr><td><div>/resume/default/findresume</div></td></tr><tr><td><div><table></table></div></td></tr></table></div></td></tr><tr><td><div><table><tr><td><div>My Resume</div></td></tr><tr><td><div>False</div></td></tr><tr><td><div>/resume/default/myresume</div></td></tr><tr><td><div><table></table></div></td></tr></table></div></td></tr><tr><td><div><table><tr><td><div>New Resume</div></td></tr><tr><td><div>False</div></td></tr><tr><td><div>/resume/default/templates</div></td></tr><tr><td><div><table></table></div></td></tr></table></div></td></tr><tr><td><div><table><tr><td><div>Marked</div></td></tr><tr><td><div>False</div></td></tr><tr><td><div>/resume/default/markedresume</div></td></tr><tr><td><div><table></table></div></td></tr></table></div></td></tr><tr><td><div><table><tr><td><div>All Resume</div></td></tr><tr><td><div>False</div></td></tr><tr><td><div>/resume/default/allresume</div></td></tr><tr><td><div><table></table></div></td></tr></table></div></td></tr><tr><td><div><table><tr><td><div>My Profile</div></td></tr><tr><td><div>False</div></td></tr><tr><td><div>/resume/default/seeprofile</div></td></tr><tr><td><div><table></table></div></td></tr></table></div></td></tr></table></div></td></tr><tr><td style="font-weight:bold;vertical-align:top;">meta</td><td style="vertical-align:top;">:</td><td><div><table><tr><td style="font-weight:bold;vertical-align:top;">author</td><td style="vertical-align:top;">:</td><td><div>None</div></td></tr><tr><td style="font-weight:bold;vertical-align:top;">description</td><td style="vertical-align:top;">:</td><td><div>None</div></td></tr><tr><td style="font-weight:bold;vertical-align:top;">generator</td><td style="vertical-align:top;">:</td><td><div>None</div></td></tr><tr><td style="font-weight:bold;vertical-align:top;">keywords</td><td style="vertical-align:top;">:</td><td><div>None</div></td></tr></table></div></td></tr><tr><td style="font-weight:bold;vertical-align:top;">models_to_run</td><td style="vertical-align:top;">:</td><td><div><table><tr><td><div>^\\w+\\.py$</div></td></tr><tr><td><div>^default/\\w+\\.py$</div></td></tr><tr><td><div>^default/moreresume1/\\w+\\.py$</div></td></tr></table></div></td></tr><tr><td style="font-weight:bold;vertical-align:top;">postprocessing</td><td style="vertical-align:top;">:</td><td><div><table></table></div></td></tr><tr><td style="font-weight:bold;vertical-align:top;">session_client</td><td style="vertical-align:top;">:</td><td><div>127.0.0.1</div></td></tr><tr><td style="font-weight:bold;vertical-align:top;">session_cookie_compression_level</td><td style="vertical-align:top;">:</td><td><div>None</div></td></tr><tr><td style="font-weight:bold;vertical-align:top;">session_cookie_expires</td><td style="vertical-align:top;">:</td><td><div>None</div></td></tr><tr><td style="font-weight:bold;vertical-align:top;">session_cookie_key</td><td style="vertical-align:top;">:</td><td><div>None</div></td></tr><tr><td style="font-weight:bold;vertical-align:top;">session_data_name</td><td style="vertical-align:top;">:</td><td><div>session_data_resume</div></td></tr><tr><td style="font-weight:bold;vertical-align:top;">session_file</td><td style="vertical-align:top;">:</td><td><div>&lt;open file &#x27;/home/saiteja/Desktop/web2py/applications/resume/sessions/0f8/086/127.0.0.1-fb4773e0-a0ef-44f9-97f1-a127d57a6c0c&#x27;, mode &#x27;rb+&#x27; at 0x7f7391d03930&gt;</div></td></tr><tr><td style="font-weight:bold;vertical-align:top;">session_filename</td><td style="vertical-align:top;">:</td><td><div>/home/saiteja/Desktop/web2py/applications/resume/sessions/127.0.0.1-fb4773e0-a0ef-44f9-97f1-a127d57a6c0c</div></td></tr><tr><td style="font-weight:bold;vertical-align:top;">session_hash</td><td style="vertical-align:top;">:</td><td><div>c7be47879eeca0666b1083c757828602</div></td></tr><tr><td style="font-weight:bold;vertical-align:top;">session_id</td><td style="vertical-align:top;">:</td><td><div>127.0.0.1-fb4773e0-a0ef-44f9-97f1-a127d57a6c0c</div></td></tr><tr><td style="font-weight:bold;vertical-align:top;">session_id_name</td><td style="vertical-align:top;">:</td><td><div>session_id_resume</div></td></tr><tr><td style="font-weight:bold;vertical-align:top;">session_locked</td><td style="vertical-align:top;">:</td><td><div>True</div></td></tr><tr><td style="font-weight:bold;vertical-align:top;">session_masterapp</td><td style="vertical-align:top;">:</td><td><div>resume</div></td></tr><tr><td style="font-weight:bold;vertical-align:top;">session_new</td><td style="vertical-align:top;">:</td><td><div>False</div></td></tr><tr><td style="font-weight:bold;vertical-align:top;">session_storage_type</td><td style="vertical-align:top;">:</td><td><div>file</div></td></tr><tr><td style="font-weight:bold;vertical-align:top;">status</td><td style="vertical-align:top;">:</td><td><div>200</div></td></tr><tr><td style="font-weight:bold;vertical-align:top;">subtitle</td><td style="vertical-align:top;">:</td><td><div>Create an impressive resume in minutes!</div></td></tr><tr><td style="font-weight:bold;vertical-align:top;">title</td><td style="vertical-align:top;">:</td><td><div>Job Hunting?</div></td></tr><tr><td style="font-weight:bold;vertical-align:top;">view</td><td style="vertical-align:top;">:</td><td><div>default/moreresume1.html</div></td></tr></table></div>'
tRp124
sS'locals'
p125
(dp126
S'Service'
p127
S"<class 'gluon.tools.Service'>"
p128
sS'OBJECT'
p129
S"<class 'gluon.html.OBJECT'>"
p130
sS'SQLDB'
p131
S"<class 'pydal.base.DAL'>"
p132
sg117
S"<Storage {'_formkey[register]': ['5e6ef684-7d18-...gin]': ['d8af4a66-eadc-45e4-b20f-649f3e5539c0']}>"
p133
sS'LINK'
p134
S"<class 'gluon.html.LINK'>"
p135
sS'BR'
p136
S"<class 'gluon.html.BR'>"
p137
sS'local_import'
p138
S'<function <lambda>>'
p139
sS'OPTGROUP'
p140
S"<class 'gluon.html.OPTGROUP'>"
p141
sS'__package__'
p142
S'None'
p143
sS'PRE'
p144
S"<class 'gluon.html.PRE'>"
p145
sS'IS_INT_IN_RANGE'
p146
S"<class 'gluon.validators.IS_INT_IN_RANGE'>"
p147
sS'left_sidebar_enabled'
p148
S'False'
p149
sS'IS_LOWER'
p150
S"<class 'gluon.validators.IS_LOWER'>"
p151
sS'IS_STRONG'
p152
S"<class 'gluon.validators.IS_STRONG'>"
p153
sS'cache'
p154
S'<gluon.cache.Cache object>'
p155
sS'IS_IN_DB'
p156
S"<class 'gluon.validators.IS_IN_DB'>"
p157
sS'TAG'
p158
S'<gluon.html.__TAG__ object>'
p159
sS'SQLField'
p160
S"<class 'pydal.objects.Field'>"
p161
sS'mail'
p162
S'<gluon.tools.Mail object>'
p163
sS'BODY'
p164
S"<class 'gluon.html.BODY'>"
p165
sS'IS_DATE_IN_RANGE'
p166
S"<class 'gluon.validators.IS_DATE_IN_RANGE'>"
p167
sS'IFRAME'
p168
S"<class 'gluon.html.IFRAME'>"
p169
sS'URL'
p170
S'<function URL>'
p171
sS'__file__'
p172
S"'/home/saiteja/Desktop/web2py/applications/resume/views/default/moreresume1.html'"
p173
sS'db'
p174
S'<DAL uri="sqlite://storage.sqlite">'
p175
sS'auth'
p176
S'<gluon.tools.Auth object>'
p177
sS'P'
S"<class 'gluon.html.P'>"
p178
sS'TFOOT'
p179
S"<class 'gluon.html.TFOOT'>"
p180
sS'XHTML'
p181
S"<class 'gluon.html.XHTML'>"
p182
sS'ON'
p183
S'True'
p184
sS'OL'
p185
S"<class 'gluon.html.OL'>"
p186
sS'IS_JSON'
p187
S"<class 'gluon.validators.IS_JSON'>"
p188
sS'TEXTAREA'
p189
S"<class 'gluon.html.TEXTAREA'>"
p190
sS'MENU'
p191
S"<class 'gluon.html.MENU'>"
p192
sS'IS_IMAGE'
p193
S"<class 'gluon.validators.IS_IMAGE'>"
p194
sS'EM'
p195
S"<class 'gluon.html.EM'>"
p196
sS'CODE'
p197
S"<class 'gluon.html.CODE'>"
p198
sS'HTTP'
p199
S"<class 'gluon.http.HTTP'>"
p200
sS'HR'
p201
S"<class 'gluon.html.HR'>"
p202
sS'IS_DATETIME'
p203
S"<class 'gluon.validators.IS_DATETIME'>"
p204
sS'STYLE'
p205
S"<class 'gluon.html.STYLE'>"
p206
sS'LABEL'
p207
S"<class 'gluon.html.LABEL'>"
p208
sS'CLEANUP'
p209
S"<class 'gluon.validators.CLEANUP'>"
p210
sS'plugins'
p211
S'<gluon.tools.PluginManager object>'
p212
sS'SELECT'
p213
S"<class 'gluon.html.SELECT'>"
p214
sS'CENTER'
p215
S"<class 'gluon.html.CENTER'>"
p216
sS'Auth'
p217
S"<class 'gluon.tools.Auth'>"
p218
sS'DEVELOPMENT_MENU'
p219
g184
sS'__builtins__'
p220
S"{'ArithmeticError': <type 'exceptions.ArithmeticError'>, 'AssertionError': <type 'exceptions.AssertionError'>, 'AttributeError': <type 'exceptions.AttributeError'>, 'BaseException': <type 'exceptions.BaseException'>, 'BufferError': <type 'exceptions.BufferError'>, 'BytesWarning': <type 'exceptions.BytesWarning'>, 'DeprecationWarning': <type 'exceptions.DeprecationWarning'>, 'EOFError': <type 'exceptions.EOFError'>, 'Ellipsis': Ellipsis, 'EnvironmentError': <type 'exceptions.EnvironmentError'>, ...}"
p221
sS'HTML'
p222
S"<class 'gluon.html.HTML'>"
p223
sS'SQLFORM'
p224
S"<class 'gluon.sqlhtml.SQLFORM'>"
p225
sS'commenta'
p226
S'<Rows (1)>'
p227
sS'LOAD'
p228
S'<function LOAD>'
p229
sS'redirect'
p230
S'<function redirect>'
p231
sS'FIELDSET'
p232
S"<class 'gluon.html.FIELDSET'>"
p233
sS'IS_EQUAL_TO'
p234
S"<class 'gluon.validators.IS_EQUAL_TO'>"
p235
sS'embed64'
p236
S'<function embed64>'
p237
sS'IS_LIST_OF'
p238
S"<class 'gluon.validators.IS_LIST_OF'>"
p239
sS'INPUT'
p240
S"<class 'gluon.html.INPUT'>"
p241
sS'EMBED'
p242
S"<class 'gluon.html.EMBED'>"
p243
sS'_'
S'<function _>'
p244
sS'myconf'
p245
S"{'forms': {'formstyle': 'bootstrap3_inline', 'se...'you@gmail.com', 'server': 'smtp.gmail.com:587'}}"
p246
sS'H2'
p247
S"<class 'gluon.html.H2'>"
p248
sS'H3'
p249
S"<class 'gluon.html.H3'>"
p250
sS'AppConfig'
p251
S'<function AppConfig>'
p252
sS'H1'
p253
S"<class 'gluon.html.H1'>"
p254
sS'H6'
p255
S"<class 'gluon.html.H6'>"
p256
sS'H4'
p257
S"<class 'gluon.html.H4'>"
p258
sS'H5'
p259
S"<class 'gluon.html.H5'>"
p260
sS'UL'
p261
S"<class 'gluon.html.UL'>"
p262
sS'IS_UPPER'
p263
S"<class 'gluon.validators.IS_UPPER'>"
p264
sS'xmlescape'
p265
S'<function xmlescape>'
p266
sS'IS_TIME'
p267
S"<class 'gluon.validators.IS_TIME'>"
p268
sS'OPTION'
p269
S"<class 'gluon.html.OPTION'>"
p270
sS'TITLE'
p271
S"<class 'gluon.html.TITLE'>"
p272
sS'CRYPT'
p273
S"<class 'gluon.validators.CRYPT'>"
p274
sS'IS_EMPTY_OR'
p275
S"<class 'gluon.validators.IS_EMPTY_OR'>"
p276
sS'MARKMIN'
p277
S"<class 'gluon.html.MARKMIN'>"
p278
sS'__name__'
p279
S"'__restricted__'"
p280
sS'message'
p281
S"<lazyT 'More Info'>"
p282
sS'STRONG'
p283
S"<class 'gluon.html.STRONG'>"
p284
sS'COL'
p285
S"<class 'gluon.html.COL'>"
p286
sS'mc1'
p287
S"'col-md-9'"
p288
sS'mc0'
p289
S"'col-md-12'"
p290
sS'service'
p291
S'<gluon.tools.Service object>'
p292
sS'SCRIPT'
p293
S"<class 'gluon.html.SCRIPT'>"
p294
sS'GENDER'
p295
S"('Male', 'Female', 'Others', '')"
p296
sS'TABLE'
p297
S"<class 'gluon.html.TABLE'>"
p298
sS'IS_IPV4'
p299
S"<class 'gluon.validators.IS_IPV4'>"
p300
sS'IS_LENGTH'
p301
S"<class 'gluon.validators.IS_LENGTH'>"
p302
sS'IS_IPV6'
p303
S"<class 'gluon.validators.IS_IPV6'>"
p304
sS'XML'
p305
S"<class 'gluon.html.XML'>"
p306
sS'B'
S"<class 'gluon.html.B'>"
p307
sS'IMG'
p308
S"<class 'gluon.html.IMG'>"
p309
sS'COUNTRIES'
p310
S"('United States', 'Afghanistan', 'Albania', 'Algeria', 'Andorra', 'Angola', 'Antigua and Barbuda', 'Argentina', 'Armenia', 'Australia', 'Austria', 'Azerbaijan', 'Bahamas', 'Bahrain', 'Bangladesh', 'Barbados', 'Belarus', 'Belgium', 'Belize', 'Benin', ...)"
p311
sS'SQLTABLE'
p312
S"<class 'gluon.sqlhtml.SQLTABLE'>"
p313
sS'IS_MATCH'
p314
S"<class 'gluon.validators.IS_MATCH'>"
p315
sS'IS_ALPHANUMERIC'
p316
S"<class 'gluon.validators.IS_ALPHANUMERIC'>"
p317
sS'SPAN'
p318
S"<class 'gluon.html.SPAN'>"
p319
sS'temp'
p320
S"'1'"
p321
sS'f'
S'<Rows (1)>'
p322
sS'IS_IPADDRESS'
p323
S"<class 'gluon.validators.IS_IPADDRESS'>"
p324
sS'IS_SLUG'
p325
S"<class 'gluon.validators.IS_SLUG'>"
p326
sS'BEAUTIFY'
p327
S"<class 'gluon.html.BEAUTIFY'>"
p328
sS'META'
p329
S"<class 'gluon.html.META'>"
p330
sS'more'
p331
S'7L'
p332
sS'TYPE'
p333
S"('Individual', 'Organization')"
p334
sS'BUTTON'
p335
S"<class 'gluon.html.BUTTON'>"
p336
sS'IS_DATE'
p337
S"<class 'gluon.validators.IS_DATE'>"
p338
sS'IS_EMAIL'
p339
S"<class 'gluon.validators.IS_EMAIL'>"
p340
sS'middle_column'
p341
S"'col-md-12'"
p342
sS'IS_NOT_EMPTY'
p343
S"<class 'gluon.validators.IS_NOT_EMPTY'>"
p344
sS'IS_FLOAT_IN_RANGE'
p345
S"<class 'gluon.validators.IS_FLOAT_IN_RANGE'>"
p346
sS'TBODY'
p347
S"<class 'gluon.html.TBODY'>"
p348
sS'CAT'
p349
S"<class 'gluon.html.CAT'>"
p350
sS'Field'
p351
S"<class 'pydal.objects.Field'>"
p352
sS'mc2'
p353
S"'col-md-6'"
p354
sS'IS_LIST_OF_EMAILS'
p355
S"<class 'gluon.validators.IS_LIST_OF_EMAILS'>"
p356
sS'DIV'
p357
S"<class 'gluon.html.DIV'>"
p358
sS'LEGEND'
p359
S"<class 'gluon.html.LEGEND'>"
p360
sS'form'
p361
S'<gluon.sqlhtml.SQLFORM object>'
p362
sS'COLGROUP'
p363
S"<class 'gluon.html.COLGROUP'>"
p364
sS'DAL'
p365
S"<class 'pydal.base.DAL'>"
p366
sS'ASSIGNJS'
p367
S'<function ASSIGNJS>'
p368
sS'TR'
p369
S"<class 'gluon.html.TR'>"
p370
sS'LI'
p371
S"<class 'gluon.html.LI'>"
p372
sS'right_sidebar_enabled'
p373
g149
sS'TH'
p374
S"<class 'gluon.html.TH'>"
p375
sS'TD'
p376
S"<class 'gluon.html.TD'>"
p377
sS'PluginManager'
p378
S"<class 'gluon.tools.PluginManager'>"
p379
sS'IS_URL'
p380
S"<class 'gluon.validators.IS_URL'>"
p381
sS'A'
S"<class 'gluon.html.A'>"
p382
sS'HEAD'
p383
S"<class 'gluon.html.HEAD'>"
p384
sS'IS_DATETIME_IN_RANGE'
p385
S"<class 'gluon.validators.IS_DATETIME_IN_RANGE'>"
p386
sS'FORM'
p387
S"<class 'gluon.html.FORM'>"
p388
sS'I'
S"<class 'gluon.html.I'>"
p389
sS'IS_NOT_IN_DB'
p390
S"<class 'gluon.validators.IS_NOT_IN_DB'>"
p391
sg123
S"<Storage {'body': <cStringIO.StringO object at 0...73b0145c80>, 'view': 'default/moreresume1.html'}>"
p392
sS'THEAD'
p393
S"<class 'gluon.html.THEAD'>"
p394
sS'ANY_OF'
p395
S"<class 'gluon.validators.ANY_OF'>"
p396
sS'IS_NULL_OR'
p397
S"<class 'gluon.validators.IS_EMPTY_OR'>"
p398
sS'i'
S"<Row {'body': 'cacac', 'userid': 1L, 'resumeid': 7L, 'id': 20L}>"
p399
sg56
S"<Storage {'_vars': None, 'function': 'moreresume...me/saiteja/Desktop/web2py/applications/resume/'}>"
p400
sS'IS_EXPR'
p401
S"<class 'gluon.validators.IS_EXPR'>"
p402
sS'T'
S'<gluon.languages.translator object>'
p403
sS'IS_IN_SET'
p404
S"<class 'gluon.validators.IS_IN_SET'>"
p405
sS'IS_UPLOAD_FILENAME'
p406
S"<class 'gluon.validators.IS_UPLOAD_FILENAME'>"
p407
sS'TT'
p408
S"<class 'gluon.html.TT'>"
p409
sS'IS_DECIMAL_IN_RANGE'
p410
S"<class 'gluon.validators.IS_DECIMAL_IN_RANGE'>"
p411
sssS'traceback'
p412
S'Traceback (most recent call last):\n  File "/home/saiteja/Desktop/web2py/gluon/restricted.py", line 227, in restricted\n    exec ccode in environment\n  File "/home/saiteja/Desktop/web2py/applications/resume/views/default/moreresume1.html", line 249, in <module>\n    #JSFiddle div.block span.company {\nAttributeError: \'list\' object has no attribute \'Company_Name\'\n'
p413
s.