(dp1
S'output'
p2
S"<type 'exceptions.AttributeError'> 'Auth' object has no attribute 'Account_Type'"
p3
sS'layer'
p4
S'/home/saiteja/Desktop/web2py/applications/resume/models/db.py'
p5
sS'code'
p6
S'# -*- coding: utf-8 -*-\n\n#########################################################################\n## This scaffolding model makes your app work on Google App Engine too\n## File is released under public domain and you can use without limitations\n#########################################################################\n\n## if SSL/HTTPS is properly configured and you want all HTTP requests to\n## be redirected to HTTPS, uncomment the line below:\n# request.requires_https()\n## app configuration made easy. Look inside private/appconfig.ini\nfrom gluon.contrib.appconfig import AppConfig\n## once in production, remove reload=True to gain full speed\nmyconf = AppConfig(reload=True)\n\n\nif not request.env.web2py_runtime_gae:\n    ## if NOT running on Google App Engine use SQLite or other DB\n    db = DAL(myconf.take(\'db.uri\'), pool_size=myconf.take(\'db.pool_size\', cast=int), check_reserved=[\'all\'])\nelse:\n    ## connect to Google BigTable (optional \'google:datastore://namespace\')\n    db = DAL(\'google:datastore+ndb\')\n    ## store sessions and tickets there\n    session.connect(request, response, db=db)\n    ## or store session in Memcache, Redis, etc.\n    ## from gluon.contrib.memdb import MEMDB\n    ## from google.appengine.api.memcache import Client\n    ## session.connect(request, response, db = MEMDB(Client()))\n\n## by default give a view/generic.extension to all actions from localhost\n## none otherwise. a pattern can be \'controller/function.extension\'\nresponse.generic_patterns = [\'*\'] if request.is_local else []\n## choose a style for forms\nresponse.formstyle = myconf.take(\'forms.formstyle\')  # or \'bootstrap3_stacked\' or \'bootstrap2\' or other\nresponse.form_label_separator = myconf.take(\'forms.separator\')\n\n\n## (optional) optimize handling of static files\n# response.optimize_css = \'concat,minify,inline\'\n# response.optimize_js = \'concat,minify,inline\'\n## (optional) static assets folder versioning\n# response.static_version = \'0.0.0\'\n#########################################################################\n## Here is sample code if you need for\n## - email capabilities\n## - authentication (registration, login, logout, ... )\n## - authorization (role based authorization)\n## - services (xml, csv, json, xmlrpc, jsonrpc, amf, rss)\n## - old style crud actions\n## (more options discussed in gluon/tools.py)\n#########################################################################\n\nfrom gluon.tools import Auth, Service, PluginManager\n\nauth = Auth(db)\nservice = Service()\nplugins = PluginManager()\n\n## create all tables needed by auth if not custom tables\nGENDER=(\'Male\',\'Female\',\'Others\')\nCOUNTRIES=(\'United States\', \'Afghanistan\', \'Albania\', \'Algeria\', \'Andorra\', \'Angola\', \'Antigua and Barbuda\', \'Argentina\', \'Armenia\', \'Australia\', \'Austria\', \'Azerbaijan\', \'Bahamas\', \'Bahrain\', \'Bangladesh\', \'Barbados\', \'Belarus\', \'Belgium\', \'Belize\', \'Benin\', \'Bhutan\', \'Bolivia\', \'Bosnia and Herzegovina\', \'Botswana\', \'Brazil\', \'Brunei\', \'Bulgaria\', \'Burkina Faso\', \'Burundi\', \'Cambodia\', \'Cameroon\', \'Canada\', \'Cape Verde\', \'Central African Republic\', \'Chad\', \'Chile\', \'China\', \'Colombia\', \'Comoros\', \'Congo\', \'Costa Rica\', \'Croatia\', \'Cuba\', \'Cyprus\', \'Czech Republic\', \'Denmark\', \'Djibouti\', \'Dominica\', \'Dominican Republic\', \'East Timor\', \'Ecuador\', \'Egypt\', \'El Salvador\', \'Equatorial Guinea\', \'Eritrea\', \'Estonia\', \'Ethiopia\', \'Fiji\', \'Finland\', \'France\', \'Gabon\', \'Gambia\', \'Georgia\', \'Germany\', \'Ghana\', \'Greece\', \'Grenada\', \'Guatemala\', \'Guinea\', \'Guinea-Bissau\', \'Guyana\', \'Haiti\', \'Honduras\', \'Hong Kong\', \'Hungary\', \'Iceland\', \'India\', \'Indonesia\', \'Iran\', \'Iraq\', \'Ireland\', \'Israel\', \'Italy\', \'Jamaica\', \'Japan\', \'Jordan\', \'Kazakhstan\', \'Kenya\', \'Kiribati\', \'North Korea\',\'South Korea\', \'Kuwait\', \'Kyrgyzstan\', \'Laos\', \'Latvia\', \'Lebanon\', \'Lesotho\', \'Liberia\', \'Libya\', \'Liechtenstein\', \'Lithuania\', \'Luxembourg\', \'FYROM\', \'Madagascar\', \'Malawi\', \'Malaysia\', \'Maldives\', \'Mali\', \'Malta\', \'Marshall Islands\', \'Mauritania\', \'Mauritius\', \'Mexico\', \'Micronesia\', \'Moldova\', \'Monaco\', \'Mongolia\', \'Montenegro\', \'Morocco\', \'Mozambique\', \'Myanmar\', \'Namibia\', \'Nauru\', \'Nepal\', \'Netherlands\', \'New Zealand\', \'Nicaragua\', \'Niger\', \'Nigeria\', \'Norway\', \'Oman\', \'Pakistan\', \'Palau\', \'Palestine\', \'Panama\', \'Papua New Guinea\', \'Paraguay\', \'Peru\', \'Philippines\', \'Poland\', \'Portugal\', \'Puerto Rico\', \'Qatar\', \'Romania\', \'Russia\', \'Rwanda\', \'Saint Kitts and Nevis\', \'Saint Lucia\', \'Saint Vincent and the Grenadines\', \'Samoa\', \'San Marino\', \'Sao Tome and Principe\', \'Saudi Arabia\', \'Senegal\', \'Serbia and Montenegro\', \'Seychelles\', \'Sierra Leone\', \'Singapore\', \'Slovakia\', \'Slovenia\', \'Solomon Islands\', \'Somalia\', \'South Africa\', \'Spain\', \'Sri Lanka\', \'Sudan\', \'Suriname\', \'Swaziland\', \'Sweden\', \'Switzerland\', \'Syria\', \'Taiwan\', \'Tajikistan\', \'Tanzania\', \'Thailand\', \'Togo\', \'Tonga\', \'Trinidad and Tobago\', \'Tunisia\', \'Turkey\', \'Turkmenistan\', \'Tuvalu\', \'Uganda\', \'Ukraine\', \'United Arab Emirates\', \'United Kingdom\', \'Uruguay\', \'Uzbekistan\', \'Vanuatu\', \'Vatican City\', \'Venezuela\', \'Vietnam\', \'Yemen\', \'Zambia\', \'Zimbabwe\')\nTYPE=(\'Individual\',\'Organization\')\n\n\nauth.settings.extra_fields[\'auth_user\']= [  Field(\'Account_Type\',\'list:string\',requires=IS_IN_SET(TYPE)) , Field(\'gender\',\'list:string\',requires=IS_IN_SET(GENDER)) ,Field("Date_of_Birth",\'date\') , Field("Contact_Number",\'string\',length=10) , Field("Profile_Photo",\'upload\') , Field("Nationality",\'list:string\',requires=IS_IN_SET(COUNTRIES))]\n\nauth.define_tables(username=False, signature=False)\nauth.gender.show_if = (auth.Account_Type == "Individual")\n## configure email\nmail = auth.settings.mailer\nmail.settings.server = \'logging\' if request.is_local else myconf.take(\'smtp.server\')\nmail.settings.sender = myconf.take(\'smtp.sender\')\nmail.settings.login = myconf.take(\'smtp.login\')\n\n## configure auth policy\nauth.settings.registration_requires_verification = False\nauth.settings.registration_requires_approval = False\nauth.settings.reset_password_requires_verification = True\n\n#########################################################################\n## Define your tables below (or better in another model file) for example\n##\n## >>> db.define_table(\'mytable\',Field(\'myfield\',\'string\'))\n##\n## Fields can be \'string\',\'text\',\'password\',\'integer\',\'double\',\'boolean\'\n##       \'date\',\'time\',\'datetime\',\'blob\',\'upload\', \'reference TABLENAME\'\n## There is an implicit \'id integer autoincrement\' field\n## Consult manual for more options, validators, etc.\n##\n## More API examples for controllers:\n##\n## >>> db.mytable.insert(myfield=\'value\')\n## >>> rows=db(db.mytable.myfield==\'value\').select(db.mytable.ALL)\n## >>> for row in rows: print row.id, row.myfield\n#########################################################################\n\n## after defining tables, uncomment below to enable auditing\n# auth.enable_record_versioning(db)\n\ndb.define_table(\'namess\',Field(\'name\',\'string\'),Field(\'email\',\'string\'),Field(\'summary\',\'text\'),Field(\'works\',\'text\'),Field(\'education\',\'text\'),Field(\'addinfo\',\'text\'),Field(\'uploadedby\',\'integer\'));\n\ndb.define_table(\'mark\',Field(\'resumeid\',\'integer\'),Field(\'userid\',\'integer\'));\n\ndb.define_table(\'comments\',Field(\'body\',\'text\'),Field(\'userid\',\'integer\'),Field(\'resumeid\',\'integer\'))\n'
p7
sS'snapshot'
p8
(dp9
S'exception'
p10
(dp11
S'__hash__'
p12
S"<method-wrapper '__hash__' of exceptions.AttributeError object>"
p13
sS'__setattr__'
p14
S"<method-wrapper '__setattr__' of exceptions.AttributeError object>"
p15
sS'__reduce_ex__'
p16
S'<built-in method __reduce_ex__ of exceptions.AttributeError object>'
p17
sS'__getslice__'
p18
S"<method-wrapper '__getslice__' of exceptions.AttributeError object>"
p19
sS'__getitem__'
p20
S"<method-wrapper '__getitem__' of exceptions.AttributeError object>"
p21
sS'__setstate__'
p22
S'<built-in method __setstate__ of exceptions.AttributeError object>'
p23
sS'args'
p24
S'("\'Auth\' object has no attribute \'Account_Type\'",)'
p25
sS'__reduce__'
p26
S'<built-in method __reduce__ of exceptions.AttributeError object>'
p27
sS'__str__'
p28
S"<method-wrapper '__str__' of exceptions.AttributeError object>"
p29
sS'__format__'
p30
S'<built-in method __format__ of exceptions.AttributeError object>'
p31
sS'__getattribute__'
p32
S"<method-wrapper '__getattribute__' of exceptions.AttributeError object>"
p33
sS'__class__'
p34
S"<type 'exceptions.AttributeError'>"
p35
sS'__unicode__'
p36
S'<built-in method __unicode__ of exceptions.AttributeError object>'
p37
sS'__delattr__'
p38
S"<method-wrapper '__delattr__' of exceptions.AttributeError object>"
p39
sS'__subclasshook__'
p40
S'<built-in method __subclasshook__ of type object>'
p41
sS'__repr__'
p42
S"<method-wrapper '__repr__' of exceptions.AttributeError object>"
p43
sS'__dict__'
p44
S'{}'
p45
sS'__sizeof__'
p46
S'<built-in method __sizeof__ of exceptions.AttributeError object>'
p47
sS'__doc__'
p48
S"'Attribute not found.'"
p49
sS'__init__'
p50
S"<method-wrapper '__init__' of exceptions.AttributeError object>"
p51
sS'__new__'
p52
S'<built-in method __new__ of type object>'
p53
ssS'evalue'
p54
S"'Auth' object has no attribute 'Account_Type'"
p55
sS'request'
p56
cgluon.html
XML_unpickle
p57
(S'sQj\x00\x00<div><table><tr><td style="font-weight:bold;vertical-align:top;">ajax</td><td style="vertical-align:top;">:</td><td><div>True</div></td></tr><tr><td style="font-weight:bold;vertical-align:top;">application</td><td style="vertical-align:top;">:</td><td><div>resume</div></td></tr><tr><td style="font-weight:bold;vertical-align:top;">args</td><td style="vertical-align:top;">:</td><td><div><table></table></div></td></tr><tr><td style="font-weight:bold;vertical-align:top;">cid</td><td style="vertical-align:top;">:</td><td><div>c438385187479</div></td></tr><tr><td style="font-weight:bold;vertical-align:top;">client</td><td style="vertical-align:top;">:</td><td><div>127.0.0.1</div></td></tr><tr><td style="font-weight:bold;vertical-align:top;">controller</td><td style="vertical-align:top;">:</td><td><div>appadmin</div></td></tr><tr><td style="font-weight:bold;vertical-align:top;">cookies</td><td style="vertical-align:top;">:</td><td><div><table><tr><td style="font-weight:bold;vertical-align:top;">session_id_admin</td><td style="vertical-align:top;">:</td><td><div>127.0.0.1-ad41086e-0058-479b-af59-567691a71ec4<table><tr><td style="font-weight:bold;vertical-align:top;">comment</td><td style="vertical-align:top;">:</td><td><div></div></td></tr><tr><td style="font-weight:bold;vertical-align:top;">domain</td><td style="vertical-align:top;">:</td><td><div></div></td></tr><tr><td style="font-weight:bold;vertical-align:top;">expires</td><td style="vertical-align:top;">:</td><td><div></div></td></tr><tr><td style="font-weight:bold;vertical-align:top;">httponly</td><td style="vertical-align:top;">:</td><td><div></div></td></tr><tr><td style="font-weight:bold;vertical-align:top;">max-age</td><td style="vertical-align:top;">:</td><td><div></div></td></tr><tr><td style="font-weight:bold;vertical-align:top;">path</td><td style="vertical-align:top;">:</td><td><div></div></td></tr><tr><td style="font-weight:bold;vertical-align:top;">secure</td><td style="vertical-align:top;">:</td><td><div></div></td></tr><tr><td style="font-weight:bold;vertical-align:top;">version</td><td style="vertical-align:top;">:</td><td><div></div></td></tr></table></div></td></tr><tr><td style="font-weight:bold;vertical-align:top;">session_id_myrecipes</td><td style="vertical-align:top;">:</td><td><div>127.0.0.1-04b0e71e-3407-41b3-a605-b32b2a50eb12<table><tr><td style="font-weight:bold;vertical-align:top;">comment</td><td style="vertical-align:top;">:</td><td><div></div></td></tr><tr><td style="font-weight:bold;vertical-align:top;">domain</td><td style="vertical-align:top;">:</td><td><div></div></td></tr><tr><td style="font-weight:bold;vertical-align:top;">expires</td><td style="vertical-align:top;">:</td><td><div></div></td></tr><tr><td style="font-weight:bold;vertical-align:top;">httponly</td><td style="vertical-align:top;">:</td><td><div></div></td></tr><tr><td style="font-weight:bold;vertical-align:top;">max-age</td><td style="vertical-align:top;">:</td><td><div></div></td></tr><tr><td style="font-weight:bold;vertical-align:top;">path</td><td style="vertical-align:top;">:</td><td><div></div></td></tr><tr><td style="font-weight:bold;vertical-align:top;">secure</td><td style="vertical-align:top;">:</td><td><div></div></td></tr><tr><td style="font-weight:bold;vertical-align:top;">version</td><td style="vertical-align:top;">:</td><td><div></div></td></tr></table></div></td></tr><tr><td style="font-weight:bold;vertical-align:top;">session_id_recipes</td><td style="vertical-align:top;">:</td><td><div>127.0.0.1-09287904-ba37-451c-9f2d-d60e71f1614e<table><tr><td style="font-weight:bold;vertical-align:top;">comment</td><td style="vertical-align:top;">:</td><td><div></div></td></tr><tr><td style="font-weight:bold;vertical-align:top;">domain</td><td style="vertical-align:top;">:</td><td><div></div></td></tr><tr><td style="font-weight:bold;vertical-align:top;">expires</td><td style="vertical-align:top;">:</td><td><div></div></td></tr><tr><td style="font-weight:bold;vertical-align:top;">httponly</td><td style="vertical-align:top;">:</td><td><div></div></td></tr><tr><td style="font-weight:bold;vertical-align:top;">max-age</td><td style="vertical-align:top;">:</td><td><div></div></td></tr><tr><td style="font-weight:bold;vertical-align:top;">path</td><td style="vertical-align:top;">:</td><td><div></div></td></tr><tr><td style="font-weight:bold;vertical-align:top;">secure</td><td style="vertical-align:top;">:</td><td><div></div></td></tr><tr><td style="font-weight:bold;vertical-align:top;">version</td><td style="vertical-align:top;">:</td><td><div></div></td></tr></table></div></td></tr><tr><td style="font-weight:bold;vertical-align:top;">session_id_resume</td><td style="vertical-align:top;">:</td><td><div>127.0.0.1-fb4efac1-7165-41b8-92ca-47208c0fe937<table><tr><td style="font-weight:bold;vertical-align:top;">comment</td><td style="vertical-align:top;">:</td><td><div></div></td></tr><tr><td style="font-weight:bold;vertical-align:top;">domain</td><td style="vertical-align:top;">:</td><td><div></div></td></tr><tr><td style="font-weight:bold;vertical-align:top;">expires</td><td style="vertical-align:top;">:</td><td><div></div></td></tr><tr><td style="font-weight:bold;vertical-align:top;">httponly</td><td style="vertical-align:top;">:</td><td><div></div></td></tr><tr><td style="font-weight:bold;vertical-align:top;">max-age</td><td style="vertical-align:top;">:</td><td><div></div></td></tr><tr><td style="font-weight:bold;vertical-align:top;">path</td><td style="vertical-align:top;">:</td><td><div></div></td></tr><tr><td style="font-weight:bold;vertical-align:top;">secure</td><td style="vertical-align:top;">:</td><td><div></div></td></tr><tr><td style="font-weight:bold;vertical-align:top;">version</td><td style="vertical-align:top;">:</td><td><div></div></td></tr></table></div></td></tr><tr><td style="font-weight:bold;vertical-align:top;">session_id_welcome</td><td style="vertical-align:top;">:</td><td><div>127.0.0.1-2474f0df-f6ba-4fcb-9dd3-fb21816b7134<table><tr><td style="font-weight:bold;vertical-align:top;">comment</td><td style="vertical-align:top;">:</td><td><div></div></td></tr><tr><td style="font-weight:bold;vertical-align:top;">domain</td><td style="vertical-align:top;">:</td><td><div></div></td></tr><tr><td style="font-weight:bold;vertical-align:top;">expires</td><td style="vertical-align:top;">:</td><td><div></div></td></tr><tr><td style="font-weight:bold;vertical-align:top;">httponly</td><td style="vertical-align:top;">:</td><td><div></div></td></tr><tr><td style="font-weight:bold;vertical-align:top;">max-age</td><td style="vertical-align:top;">:</td><td><div></div></td></tr><tr><td style="font-weight:bold;vertical-align:top;">path</td><td style="vertical-align:top;">:</td><td><div></div></td></tr><tr><td style="font-weight:bold;vertical-align:top;">secure</td><td style="vertical-align:top;">:</td><td><div></div></td></tr><tr><td style="font-weight:bold;vertical-align:top;">version</td><td style="vertical-align:top;">:</td><td><div></div></td></tr></table></div></td></tr></table></div></td></tr><tr><td style="font-weight:bold;vertical-align:top;">env</td><td style="vertical-align:top;">:</td><td><div><table><tr><td style="font-weight:bold;vertical-align:top;">HTTP_ACCEPT</td><td style="vertical-align:top;">:</td><td><div>*/*</div></td></tr><tr><td style="font-weight:bold;vertical-align:top;">HTTP_ACCEPT_ENCODING</td><td style="vertical-align:top;">:</td><td><div>gzip, deflate</div></td></tr><tr><td style="font-weight:bold;vertical-align:top;">HTTP_ACCEPT_LANGUAGE</td><td style="vertical-align:top;">:</td><td><div>en-US,en;q=0.5</div></td></tr><tr><td style="font-weight:bold;vertical-align:top;">HTTP_CONNECTION</td><td style="vertical-align:top;">:</td><td><div>keep-alive</div></td></tr><tr><td style="font-weight:bold;vertical-align:top;">HTTP_COOKIE</td><td style="vertical-align:top;">:</td><td><div>session_id_myrecipes=127.0.0.1-04b0e71e-3407-41b3-a605-b32b2a50eb12; session_id_welcome=127.0.0.1-2474f0df-f6ba-4fcb-9dd3-fb21816b7134; session_id_admin=127.0.0.1-ad41086e-0058-479b-af59-567691a71ec4; session_id_resume=127.0.0.1-fb4efac1-7165-41b8-92ca-47208c0fe937; session_id_recipes=127.0.0.1-09287904-ba37-451c-9f2d-d60e71f1614e</div></td></tr><tr><td style="font-weight:bold;vertical-align:top;">HTTP_HOST</td><td style="vertical-align:top;">:</td><td><div>127.0.0.1:8000</div></td></tr><tr><td style="font-weight:bold;vertical-align:top;">HTTP_REFERER</td><td style="vertical-align:top;">:</td><td><div>http://127.0.0.1:8000/admin/default/edit/resume/controllers/default.py?id=controllers__default__py</div></td></tr><tr><td style="font-weight:bold;vertical-align:top;">HTTP_USER_AGENT</td><td style="vertical-align:top;">:</td><td><div>Mozilla/5.0 (X11; Ubuntu; Linux x86_64; rv:45.0) Gecko/20100101 Firefox/45.0</div></td></tr><tr><td style="font-weight:bold;vertical-align:top;">HTTP_WEB2PY_COMPONENT_ELEMENT</td><td style="vertical-align:top;">:</td><td><div>c438385187479</div></td></tr><tr><td style="font-weight:bold;vertical-align:top;">HTTP_WEB2PY_COMPONENT_LOCATION</td><td style="vertical-align:top;">:</td><td><div>http://127.0.0.1:8000/admin/default/edit/resume/controllers/default.py?id=controllers__default__py</div></td></tr><tr><td style="font-weight:bold;vertical-align:top;">HTTP_X_REQUESTED_WITH</td><td style="vertical-align:top;">:</td><td><div>XMLHttpRequest</div></td></tr><tr><td style="font-weight:bold;vertical-align:top;">PATH_INFO</td><td style="vertical-align:top;">:</td><td><div>/resume/appadmin/hooks</div></td></tr><tr><td style="font-weight:bold;vertical-align:top;">QUERY_STRING</td><td style="vertical-align:top;">:</td><td><div></div></td></tr><tr><td style="font-weight:bold;vertical-align:top;">REMOTE_ADDR</td><td style="vertical-align:top;">:</td><td><div>127.0.0.1</div></td></tr><tr><td style="font-weight:bold;vertical-align:top;">REMOTE_PORT</td><td style="vertical-align:top;">:</td><td><div>36425</div></td></tr><tr><td style="font-weight:bold;vertical-align:top;">REQUEST_METHOD</td><td style="vertical-align:top;">:</td><td><div>GET</div></td></tr><tr><td style="font-weight:bold;vertical-align:top;">SCRIPT_NAME</td><td style="vertical-align:top;">:</td><td><div></div></td></tr><tr><td style="font-weight:bold;vertical-align:top;">SERVER_NAME</td><td style="vertical-align:top;">:</td><td><div>saiteja-Vostro-3558</div></td></tr><tr><td style="font-weight:bold;vertical-align:top;">SERVER_PORT</td><td style="vertical-align:top;">:</td><td><div>8000</div></td></tr><tr><td style="font-weight:bold;vertical-align:top;">SERVER_PROTOCOL</td><td style="vertical-align:top;">:</td><td><div>HTTP/1.1</div></td></tr><tr><td style="font-weight:bold;vertical-align:top;">SERVER_SOFTWARE</td><td style="vertical-align:top;">:</td><td><div>Rocket 1.2.6</div></td></tr><tr><td style="font-weight:bold;vertical-align:top;">app_folders</td><td style="vertical-align:top;">:</td><td><div>set([&#x27;/home/saiteja/Desktop/web2py/applications/resume/&#x27;, &#x27;/home/saiteja/Desktop/web2py/applications/admin/&#x27;, &#x27;/home/saiteja/Desktop/web2py/applications/welcome/&#x27;, &#x27;/home/saiteja/Desktop/web2py/applications/recipes/&#x27;])</div></td></tr><tr><td style="font-weight:bold;vertical-align:top;">applications_parent</td><td style="vertical-align:top;">:</td><td><div>/home/saiteja/Desktop/web2py</div></td></tr><tr><td style="font-weight:bold;vertical-align:top;">cmd_args</td><td style="vertical-align:top;">:</td><td><div><table></table></div></td></tr><tr><td style="font-weight:bold;vertical-align:top;">cmd_options</td><td style="vertical-align:top;">:</td><td><div>&lt;Values at 0x7fc5a5bb21b8: {&#x27;verbose&#x27;: False, &#x27;ip&#x27;: &#x27;127.0.0.1&#x27;, &#x27;debuglevel&#x27;: 30, &#x27;with_scheduler&#x27;: False, &#x27;ips&#x27;: [&#x27;127.0.1.1&#x27;], &#x27;shutdown_timeout&#x27;: 5, &#x27;taskbar&#x27;: False, &#x27;with_coverage&#x27;: False, &#x27;scheduler_groups&#x27;: None, &#x27;port&#x27;: 8000, &#x27;maxthreads&#x27;: None, &#x27;softcron&#x27;: False, &#x27;server_name&#x27;: &#x27;saiteja-Vostro-3558&#x27;, &#x27;bpython&#x27;: False, &#x27;nogui&#x27;: False, &#x27;pid_filename&#x27;: &#x27;httpserver.pid&#x27;, &#x27;print_errors&#x27;: False, &#x27;extcron&#x27;: False, &#x27;runcron&#x27;: False, &#x27;run_system_tests&#x27;: False, &#x27;test&#x27;: None, &#x27;folder&#x27;: &#x27;/home/saiteja/Desktop/web2py&#x27;, &#x27;config&#x27;: &#x27;&#x27;, &#x27;minthreads&#x27;: None, &#x27;shell&#x27;: None, &#x27;run&#x27;: &#x27;&#x27;, &#x27;log_filename&#x27;: &#x27;httpserver.log&#x27;, &#x27;profiler_dir&#x27;: None, &#x27;args&#x27;: [&#x27;&#x27;], &#x27;socket_timeout&#x27;: 5, &#x27;ssl_ca_certificate&#x27;: None, &#x27;scheduler&#x27;: None, &#x27;interfaces&#x27;: None, &#x27;ssl_private_key&#x27;: &#x27;&#x27;, &#x27;gae&#x27;: None, &#x27;password&#x27;: &#x27;&lt;ask&gt;&#x27;, &#x27;request_queue_size&#x27;: 5, &#x27;ssl_certificate&#x27;: &#x27;&#x27;, &#x27;cronjob&#x27;: False, &#x27;numthreads&#x27;: None, &#x27;quiet&#x27;: False, &#x27;import_models&#x27;: False, &#x27;timeout&#x27;: 10, &#x27;plain&#x27;: False, &#x27;nobanner&#x27;: False}&gt;</div></td></tr><tr><td style="font-weight:bold;vertical-align:top;">db_sessions</td><td style="vertical-align:top;">:</td><td><div>set([])</div></td></tr><tr><td style="font-weight:bold;vertical-align:top;">debugging</td><td style="vertical-align:top;">:</td><td><div>True</div></td></tr><tr><td style="font-weight:bold;vertical-align:top;">gluon_parent</td><td style="vertical-align:top;">:</td><td><div>/home/saiteja/Desktop/web2py</div></td></tr><tr><td style="font-weight:bold;vertical-align:top;">http_accept</td><td style="vertical-align:top;">:</td><td><div>*/*</div></td></tr><tr><td style="font-weight:bold;vertical-align:top;">http_accept_encoding</td><td style="vertical-align:top;">:</td><td><div>gzip, deflate</div></td></tr><tr><td style="font-weight:bold;vertical-align:top;">http_accept_language</td><td style="vertical-align:top;">:</td><td><div>en-US,en;q=0.5</div></td></tr><tr><td style="font-weight:bold;vertical-align:top;">http_connection</td><td style="vertical-align:top;">:</td><td><div>keep-alive</div></td></tr><tr><td style="font-weight:bold;vertical-align:top;">http_cookie</td><td style="vertical-align:top;">:</td><td><div>session_id_myrecipes=127.0.0.1-04b0e71e-3407-41b3-a605-b32b2a50eb12; session_id_welcome=127.0.0.1-2474f0df-f6ba-4fcb-9dd3-fb21816b7134; session_id_admin=127.0.0.1-ad41086e-0058-479b-af59-567691a71ec4; session_id_resume=127.0.0.1-fb4efac1-7165-41b8-92ca-47208c0fe937; session_id_recipes=127.0.0.1-09287904-ba37-451c-9f2d-d60e71f1614e</div></td></tr><tr><td style="font-weight:bold;vertical-align:top;">http_host</td><td style="vertical-align:top;">:</td><td><div>127.0.0.1:8000</div></td></tr><tr><td style="font-weight:bold;vertical-align:top;">http_referer</td><td style="vertical-align:top;">:</td><td><div>http://127.0.0.1:8000/admin/default/edit/resume/controllers/default.py?id=controllers__default__py</div></td></tr><tr><td style="font-weight:bold;vertical-align:top;">http_user_agent</td><td style="vertical-align:top;">:</td><td><div>Mozilla/5.0 (X11; Ubuntu; Linux x86_64; rv:45.0) Gecko/20100101 Firefox/45.0</div></td></tr><tr><td style="font-weight:bold;vertical-align:top;">http_web2py_component_element</td><td style="vertical-align:top;">:</td><td><div>c438385187479</div></td></tr><tr><td style="font-weight:bold;vertical-align:top;">http_web2py_component_location</td><td style="vertical-align:top;">:</td><td><div>http://127.0.0.1:8000/admin/default/edit/resume/controllers/default.py?id=controllers__default__py</div></td></tr><tr><td style="font-weight:bold;vertical-align:top;">http_x_requested_with</td><td style="vertical-align:top;">:</td><td><div>XMLHttpRequest</div></td></tr><tr><td style="font-weight:bold;vertical-align:top;">is_jython</td><td style="vertical-align:top;">:</td><td><div>False</div></td></tr><tr><td style="font-weight:bold;vertical-align:top;">is_pypy</td><td style="vertical-align:top;">:</td><td><div>False</div></td></tr><tr><td style="font-weight:bold;vertical-align:top;">is_source</td><td style="vertical-align:top;">:</td><td><div>True</div></td></tr><tr><td style="font-weight:bold;vertical-align:top;">local_hosts</td><td style="vertical-align:top;">:</td><td><div><table><tr><td><div>::1</div></td></tr><tr><td><div>127.0.1.1</div></td></tr><tr><td><div>::ffff:127.0.0.1</div></td></tr><tr><td><div>127.0.0.1</div></td></tr><tr><td><div>saiteja-Vostro-3558</div></td></tr></table></div></td></tr><tr><td style="font-weight:bold;vertical-align:top;">path_info</td><td style="vertical-align:top;">:</td><td><div>/resume/appadmin/hooks</div></td></tr><tr><td style="font-weight:bold;vertical-align:top;">query_string</td><td style="vertical-align:top;">:</td><td><div></div></td></tr><tr><td style="font-weight:bold;vertical-align:top;">remote_addr</td><td style="vertical-align:top;">:</td><td><div>127.0.0.1</div></td></tr><tr><td style="font-weight:bold;vertical-align:top;">remote_port</td><td style="vertical-align:top;">:</td><td><div>36425</div></td></tr><tr><td style="font-weight:bold;vertical-align:top;">request_method</td><td style="vertical-align:top;">:</td><td><div>GET</div></td></tr><tr><td style="font-weight:bold;vertical-align:top;">request_uri</td><td style="vertical-align:top;">:</td><td><div>/resume/appadmin/hooks</div></td></tr><tr><td style="font-weight:bold;vertical-align:top;">script_name</td><td style="vertical-align:top;">:</td><td><div></div></td></tr><tr><td style="font-weight:bold;vertical-align:top;">server_name</td><td style="vertical-align:top;">:</td><td><div>saiteja-Vostro-3558</div></td></tr><tr><td style="font-weight:bold;vertical-align:top;">server_port</td><td style="vertical-align:top;">:</td><td><div>8000</div></td></tr><tr><td style="font-weight:bold;vertical-align:top;">server_protocol</td><td style="vertical-align:top;">:</td><td><div>HTTP/1.1</div></td></tr><tr><td style="font-weight:bold;vertical-align:top;">server_software</td><td style="vertical-align:top;">:</td><td><div>Rocket 1.2.6</div></td></tr><tr><td style="font-weight:bold;vertical-align:top;">web2py_path</td><td style="vertical-align:top;">:</td><td><div>/home/saiteja/Desktop/web2py</div></td></tr><tr><td style="font-weight:bold;vertical-align:top;">web2py_version</td><td style="vertical-align:top;">:</td><td><div>2.13.4-stable+timestamp.2015.12.26.04.59.39</div></td></tr><tr><td style="font-weight:bold;vertical-align:top;">wsgi.errors</td><td style="vertical-align:top;">:</td><td><div>&lt;open file &#x27;&lt;stderr&gt;&#x27;, mode &#x27;w&#x27; at 0x7fc5aa1e41e0&gt;</div></td></tr><tr><td style="font-weight:bold;vertical-align:top;">wsgi.file_wrapper</td><td style="vertical-align:top;">:</td><td><div>&lt;class wsgiref.util.FileWrapper at 0x7fc5a5acd940&gt;</div></td></tr><tr><td style="font-weight:bold;vertical-align:top;">wsgi.input</td><td style="vertical-align:top;">:</td><td><div>&lt;socket._fileobject object at 0x7fc56d0a2850&gt;</div></td></tr><tr><td style="font-weight:bold;vertical-align:top;">wsgi.multiprocess</td><td style="vertical-align:top;">:</td><td><div>False</div></td></tr><tr><td style="font-weight:bold;vertical-align:top;">wsgi.multithread</td><td style="vertical-align:top;">:</td><td><div>True</div></td></tr><tr><td style="font-weight:bold;vertical-align:top;">wsgi.run_once</td><td style="vertical-align:top;">:</td><td><div>False</div></td></tr><tr><td style="font-weight:bold;vertical-align:top;">wsgi.url_scheme</td><td style="vertical-align:top;">:</td><td><div>http</div></td></tr><tr><td style="font-weight:bold;vertical-align:top;">wsgi.version</td><td style="vertical-align:top;">:</td><td><div><table><tr><td><div>1</div></td></tr><tr><td><div>0</div></td></tr></table></div></td></tr><tr><td style="font-weight:bold;vertical-align:top;">wsgi_errors</td><td style="vertical-align:top;">:</td><td><div>&lt;open file &#x27;&lt;stderr&gt;&#x27;, mode &#x27;w&#x27; at 0x7fc5aa1e41e0&gt;</div></td></tr><tr><td style="font-weight:bold;vertical-align:top;">wsgi_file_wrapper</td><td style="vertical-align:top;">:</td><td><div>&lt;class wsgiref.util.FileWrapper at 0x7fc5a5acd940&gt;</div></td></tr><tr><td style="font-weight:bold;vertical-align:top;">wsgi_input</td><td style="vertical-align:top;">:</td><td><div>&lt;socket._fileobject object at 0x7fc56d0a2850&gt;</div></td></tr><tr><td style="font-weight:bold;vertical-align:top;">wsgi_multiprocess</td><td style="vertical-align:top;">:</td><td><div>False</div></td></tr><tr><td style="font-weight:bold;vertical-align:top;">wsgi_multithread</td><td style="vertical-align:top;">:</td><td><div>True</div></td></tr><tr><td style="font-weight:bold;vertical-align:top;">wsgi_run_once</td><td style="vertical-align:top;">:</td><td><div>False</div></td></tr><tr><td style="font-weight:bold;vertical-align:top;">wsgi_url_scheme</td><td style="vertical-align:top;">:</td><td><div>http</div></td></tr><tr><td style="font-weight:bold;vertical-align:top;">wsgi_version</td><td style="vertical-align:top;">:</td><td><div><table><tr><td><div>1</div></td></tr><tr><td><div>0</div></td></tr></table></div></td></tr></table></div></td></tr><tr><td style="font-weight:bold;vertical-align:top;">extension</td><td style="vertical-align:top;">:</td><td><div>html</div></td></tr><tr><td style="font-weight:bold;vertical-align:top;">folder</td><td style="vertical-align:top;">:</td><td><div>/home/saiteja/Desktop/web2py/applications/resume/</div></td></tr><tr><td style="font-weight:bold;vertical-align:top;">function</td><td style="vertical-align:top;">:</td><td><div>hooks</div></td></tr><tr><td style="font-weight:bold;vertical-align:top;">global_settings</td><td style="vertical-align:top;">:</td><td><div><table><tr><td style="font-weight:bold;vertical-align:top;">app_folders</td><td style="vertical-align:top;">:</td><td><div>set([&#x27;/home/saiteja/Desktop/web2py/applications/resume/&#x27;, &#x27;/home/saiteja/Desktop/web2py/applications/admin/&#x27;, &#x27;/home/saiteja/Desktop/web2py/applications/welcome/&#x27;, &#x27;/home/saiteja/Desktop/web2py/applications/recipes/&#x27;])</div></td></tr><tr><td style="font-weight:bold;vertical-align:top;">applications_parent</td><td style="vertical-align:top;">:</td><td><div>/home/saiteja/Desktop/web2py</div></td></tr><tr><td style="font-weight:bold;vertical-align:top;">cmd_args</td><td style="vertical-align:top;">:</td><td><div><table></table></div></td></tr><tr><td style="font-weight:bold;vertical-align:top;">cmd_options</td><td style="vertical-align:top;">:</td><td><div>&lt;Values at 0x7fc5a5bb21b8: {&#x27;verbose&#x27;: False, &#x27;ip&#x27;: &#x27;127.0.0.1&#x27;, &#x27;debuglevel&#x27;: 30, &#x27;with_scheduler&#x27;: False, &#x27;ips&#x27;: [&#x27;127.0.1.1&#x27;], &#x27;shutdown_timeout&#x27;: 5, &#x27;taskbar&#x27;: False, &#x27;with_coverage&#x27;: False, &#x27;scheduler_groups&#x27;: None, &#x27;port&#x27;: 8000, &#x27;maxthreads&#x27;: None, &#x27;softcron&#x27;: False, &#x27;server_name&#x27;: &#x27;saiteja-Vostro-3558&#x27;, &#x27;bpython&#x27;: False, &#x27;nogui&#x27;: False, &#x27;pid_filename&#x27;: &#x27;httpserver.pid&#x27;, &#x27;print_errors&#x27;: False, &#x27;extcron&#x27;: False, &#x27;runcron&#x27;: False, &#x27;run_system_tests&#x27;: False, &#x27;test&#x27;: None, &#x27;folder&#x27;: &#x27;/home/saiteja/Desktop/web2py&#x27;, &#x27;config&#x27;: &#x27;&#x27;, &#x27;minthreads&#x27;: None, &#x27;shell&#x27;: None, &#x27;run&#x27;: &#x27;&#x27;, &#x27;log_filename&#x27;: &#x27;httpserver.log&#x27;, &#x27;profiler_dir&#x27;: None, &#x27;args&#x27;: [&#x27;&#x27;], &#x27;socket_timeout&#x27;: 5, &#x27;ssl_ca_certificate&#x27;: None, &#x27;scheduler&#x27;: None, &#x27;interfaces&#x27;: None, &#x27;ssl_private_key&#x27;: &#x27;&#x27;, &#x27;gae&#x27;: None, &#x27;password&#x27;: &#x27;&lt;ask&gt;&#x27;, &#x27;request_queue_size&#x27;: 5, &#x27;ssl_certificate&#x27;: &#x27;&#x27;, &#x27;cronjob&#x27;: False, &#x27;numthreads&#x27;: None, &#x27;quiet&#x27;: False, &#x27;import_models&#x27;: False, &#x27;timeout&#x27;: 10, &#x27;plain&#x27;: False, &#x27;nobanner&#x27;: False}&gt;</div></td></tr><tr><td style="font-weight:bold;vertical-align:top;">db_sessions</td><td style="vertical-align:top;">:</td><td><div>set([])</div></td></tr><tr><td style="font-weight:bold;vertical-align:top;">debugging</td><td style="vertical-align:top;">:</td><td><div>True</div></td></tr><tr><td style="font-weight:bold;vertical-align:top;">gluon_parent</td><td style="vertical-align:top;">:</td><td><div>/home/saiteja/Desktop/web2py</div></td></tr><tr><td style="font-weight:bold;vertical-align:top;">is_jython</td><td style="vertical-align:top;">:</td><td><div>False</div></td></tr><tr><td style="font-weight:bold;vertical-align:top;">is_pypy</td><td style="vertical-align:top;">:</td><td><div>False</div></td></tr><tr><td style="font-weight:bold;vertical-align:top;">is_source</td><td style="vertical-align:top;">:</td><td><div>True</div></td></tr><tr><td style="font-weight:bold;vertical-align:top;">local_hosts</td><td style="vertical-align:top;">:</td><td><div><table><tr><td><div>::1</div></td></tr><tr><td><div>127.0.1.1</div></td></tr><tr><td><div>::ffff:127.0.0.1</div></td></tr><tr><td><div>127.0.0.1</div></td></tr><tr><td><div>saiteja-Vostro-3558</div></td></tr></table></div></td></tr><tr><td style="font-weight:bold;vertical-align:top;">web2py_version</td><td style="vertical-align:top;">:</td><td><div>2.13.4-stable+timestamp.2015.12.26.04.59.39</div></td></tr></table></div></td></tr><tr><td style="font-weight:bold;vertical-align:top;">is_https</td><td style="vertical-align:top;">:</td><td><div>False</div></td></tr><tr><td style="font-weight:bold;vertical-align:top;">is_local</td><td style="vertical-align:top;">:</td><td><div>True</div></td></tr><tr><td style="font-weight:bold;vertical-align:top;">is_restful</td><td style="vertical-align:top;">:</td><td><div>False</div></td></tr><tr><td style="font-weight:bold;vertical-align:top;">is_scheduler</td><td style="vertical-align:top;">:</td><td><div>False</div></td></tr><tr><td style="font-weight:bold;vertical-align:top;">is_shell</td><td style="vertical-align:top;">:</td><td><div>False</div></td></tr><tr><td style="font-weight:bold;vertical-align:top;">now</td><td style="vertical-align:top;">:</td><td><div>datetime.datetime(2016, 4, 11, 18, 10, 42, 764940)</div></td></tr><tr><td style="font-weight:bold;vertical-align:top;">raw_args</td><td style="vertical-align:top;">:</td><td><div></div></td></tr><tr><td style="font-weight:bold;vertical-align:top;">raw_extension</td><td style="vertical-align:top;">:</td><td><div>None</div></td></tr><tr><td style="font-weight:bold;vertical-align:top;">url</td><td style="vertical-align:top;">:</td><td><div>/resume/appadmin/hooks</div></td></tr><tr><td style="font-weight:bold;vertical-align:top;">utcnow</td><td style="vertical-align:top;">:</td><td><div>datetime.datetime(2016, 4, 11, 12, 40, 42, 764962)</div></td></tr><tr><td style="font-weight:bold;vertical-align:top;">wsgi</td><td style="vertical-align:top;">:</td><td><div>&lt;gluon.main.LazyWSGI object at 0x7fc59010ca50&gt;</div></td></tr></table></div>'
tRp58
sS'frames'
p59
(lp60
(dp61
S'file'
p62
S'/home/saiteja/Desktop/web2py/gluon/restricted.py'
p63
sS'dump'
p64
(dp65
S'environment'
p66
S"{'A': <class 'gluon.html.A'>, 'ANY_OF': <class 'gluon.validators.ANY_OF'>, 'ASSIGNJS': <function ASSIGNJS>, 'AppConfig': <function AppConfig>, 'Auth': <class 'gluon.tools.Auth'>, 'B': <class 'gluon.html.B'>, 'BEAUTIFY': <class 'gluon.html.BEAUTIFY'>, 'BODY': <class 'gluon.html.BODY'>, 'BR': <class 'gluon.html.BR'>, 'BUTTON': <class 'gluon.html.BUTTON'>, ...}"
p67
sS'ccode'
p68
S'<code object <module> at 0x7fc56d26ea30, file "/...eb2py/applications/resume/models/db.py", line 12>'
p69
ssS'lnum'
p70
I227
sS'lines'
p71
(dp72
I224
S'            ccode = code'
p73
sI225
S'        else:'
p74
sI226
S'            ccode = compile2(code, layer)'
p75
sI227
S'        exec ccode in environment'
p76
sI228
S'    except HTTP:'
p77
sI229
S'        raise'
p78
sI230
S'    except RestrictedError:'
p79
sI231
S'        # do not encapsulate (obfuscate) the original RestrictedError'
p80
sI222
S'    try:'
p81
sI223
S'        if isinstance(code, types.CodeType):'
p82
ssS'call'
p83
S'(code="# -*- coding: utf-8 -*-\\n\\n#######################...\'userid\',\'integer\'),Field(\'resumeid\',\'integer\'))\\n", environment={\'A\': <class \'gluon.html.A\'>, \'ANY_OF\': <class \'gluon.validators.ANY_OF\'>, \'ASSIGNJS\': <function ASSIGNJS>, \'AppConfig\': <function AppConfig>, \'Auth\': <class \'gluon.tools.Auth\'>, \'B\': <class \'gluon.html.B\'>, \'BEAUTIFY\': <class \'gluon.html.BEAUTIFY\'>, \'BODY\': <class \'gluon.html.BODY\'>, \'BR\': <class \'gluon.html.BR\'>, \'BUTTON\': <class \'gluon.html.BUTTON\'>, ...}, layer=\'/home/saiteja/Desktop/web2py/applications/resume/models/db.py\')'
p84
sS'func'
p85
S'restricted'
p86
sa(dp87
g62
S'/home/saiteja/Desktop/web2py/applications/resume/models/db.py'
p88
sg64
(dp89
S'auth.Account_Type'
p90
S'undefined'
p91
sS'auth.gender'
p92
g91
sS'auth'
p93
S'<gluon.tools.Auth object>'
p94
ssg70
I68
sg71
(dp95
I64
S''
sI65
S'auth.settings.extra_fields[\'auth_user\']= [  Field(\'Account_Type\',\'list:string\',requires=IS_IN_SET(TYPE)) , Field(\'gender\',\'list:string\',requires=IS_IN_SET(GENDER)) ,Field("Date_of_Birth",\'date\') , Field("Contact_Number",\'string\',length=10) , Field("Profile_Photo",\'upload\') , Field("Nationality",\'list:string\',requires=IS_IN_SET(COUNTRIES))]'
p96
sI66
S''
sI67
S'auth.define_tables(username=False, signature=False)'
p97
sI68
S'auth.gender.show_if = (auth.Account_Type == "Individual")'
p98
sI69
S'## configure email'
p99
sI70
S'mail = auth.settings.mailer'
p100
sI71
S"mail.settings.server = 'logging' if request.is_local else myconf.take('smtp.server')"
p101
sI72
S"mail.settings.sender = myconf.take('smtp.sender')"
p102
sI63
S''
ssg83
S'()'
p103
sg85
S'<module>'
p104
sasS'pyver'
p105
S'Python 2.7.6: /usr/bin/python (prefix: /usr)'
p106
sS'session'
p107
g57
(S's\x9c\x00\x00\x00<div><table><tr><td style="font-weight:bold;vertical-align:top;">flash</td><td style="vertical-align:top;">:</td><td><div>None</div></td></tr></table></div>'
tRp108
sS'etype'
p109
S"<type 'exceptions.AttributeError'>"
p110
sS'date'
p111
S'Mon Apr 11 18:10:42 2016'
p112
sS'response'
p113
g57
(S's\x02\x18\x00\x00<div><table><tr><td style="font-weight:bold;vertical-align:top;">body</td><td style="vertical-align:top;">:</td><td><div>&lt;cStringIO.StringO object at 0x7fc56d4dbea0&gt;</div></td></tr><tr><td style="font-weight:bold;vertical-align:top;">cookies</td><td style="vertical-align:top;">:</td><td><div><table><tr><td style="font-weight:bold;vertical-align:top;">session_id_resume</td><td style="vertical-align:top;">:</td><td><div>127.0.0.1-fb4efac1-7165-41b8-92ca-47208c0fe937<table><tr><td style="font-weight:bold;vertical-align:top;">comment</td><td style="vertical-align:top;">:</td><td><div></div></td></tr><tr><td style="font-weight:bold;vertical-align:top;">domain</td><td style="vertical-align:top;">:</td><td><div></div></td></tr><tr><td style="font-weight:bold;vertical-align:top;">expires</td><td style="vertical-align:top;">:</td><td><div></div></td></tr><tr><td style="font-weight:bold;vertical-align:top;">httponly</td><td style="vertical-align:top;">:</td><td><div></div></td></tr><tr><td style="font-weight:bold;vertical-align:top;">max-age</td><td style="vertical-align:top;">:</td><td><div></div></td></tr><tr><td style="font-weight:bold;vertical-align:top;">path</td><td style="vertical-align:top;">:</td><td><div>/</div></td></tr><tr><td style="font-weight:bold;vertical-align:top;">secure</td><td style="vertical-align:top;">:</td><td><div></div></td></tr><tr><td style="font-weight:bold;vertical-align:top;">version</td><td style="vertical-align:top;">:</td><td><div></div></td></tr></table></div></td></tr></table></div></td></tr><tr><td style="font-weight:bold;vertical-align:top;">delimiters</td><td style="vertical-align:top;">:</td><td><div><table><tr><td><div>{{</div></td></tr><tr><td><div>}}</div></td></tr></table></div></td></tr><tr><td style="font-weight:bold;vertical-align:top;">files</td><td style="vertical-align:top;">:</td><td><div><table></table></div></td></tr><tr><td style="font-weight:bold;vertical-align:top;">flash</td><td style="vertical-align:top;">:</td><td><div></div></td></tr><tr><td style="font-weight:bold;vertical-align:top;">form_label_separator</td><td style="vertical-align:top;">:</td><td><div></div></td></tr><tr><td style="font-weight:bold;vertical-align:top;">formstyle</td><td style="vertical-align:top;">:</td><td><div>bootstrap3_inline</div></td></tr><tr><td style="font-weight:bold;vertical-align:top;">generic_patterns</td><td style="vertical-align:top;">:</td><td><div><table><tr><td><div>*</div></td></tr></table></div></td></tr><tr><td style="font-weight:bold;vertical-align:top;">headers</td><td style="vertical-align:top;">:</td><td><div><table><tr><td style="font-weight:bold;vertical-align:top;">X-Powered-By</td><td style="vertical-align:top;">:</td><td><div>web2py</div></td></tr></table></div></td></tr><tr><td style="font-weight:bold;vertical-align:top;">menu</td><td style="vertical-align:top;">:</td><td><div><table></table></div></td></tr><tr><td style="font-weight:bold;vertical-align:top;">meta</td><td style="vertical-align:top;">:</td><td><div><table></table></div></td></tr><tr><td style="font-weight:bold;vertical-align:top;">models_to_run</td><td style="vertical-align:top;">:</td><td><div><table><tr><td><div>^\\w+\\.py$</div></td></tr><tr><td><div>^appadmin/\\w+\\.py$</div></td></tr><tr><td><div>^appadmin/hooks/\\w+\\.py$</div></td></tr></table></div></td></tr><tr><td style="font-weight:bold;vertical-align:top;">postprocessing</td><td style="vertical-align:top;">:</td><td><div><table></table></div></td></tr><tr><td style="font-weight:bold;vertical-align:top;">session_client</td><td style="vertical-align:top;">:</td><td><div>127.0.0.1</div></td></tr><tr><td style="font-weight:bold;vertical-align:top;">session_cookie_compression_level</td><td style="vertical-align:top;">:</td><td><div>None</div></td></tr><tr><td style="font-weight:bold;vertical-align:top;">session_cookie_expires</td><td style="vertical-align:top;">:</td><td><div>None</div></td></tr><tr><td style="font-weight:bold;vertical-align:top;">session_cookie_key</td><td style="vertical-align:top;">:</td><td><div>None</div></td></tr><tr><td style="font-weight:bold;vertical-align:top;">session_data_name</td><td style="vertical-align:top;">:</td><td><div>session_data_resume</div></td></tr><tr><td style="font-weight:bold;vertical-align:top;">session_file</td><td style="vertical-align:top;">:</td><td><div>&lt;open file &#x27;/home/saiteja/Desktop/web2py/applications/resume/sessions/05f/1b1/127.0.0.1-fb4efac1-7165-41b8-92ca-47208c0fe937&#x27;, mode &#x27;rb+&#x27; at 0x7fc56d216e40&gt;</div></td></tr><tr><td style="font-weight:bold;vertical-align:top;">session_filename</td><td style="vertical-align:top;">:</td><td><div>/home/saiteja/Desktop/web2py/applications/resume/sessions/127.0.0.1-fb4efac1-7165-41b8-92ca-47208c0fe937</div></td></tr><tr><td style="font-weight:bold;vertical-align:top;">session_hash</td><td style="vertical-align:top;">:</td><td><div>bcaa95ad4230fb34c9b383e753fbc2ad</div></td></tr><tr><td style="font-weight:bold;vertical-align:top;">session_id</td><td style="vertical-align:top;">:</td><td><div>127.0.0.1-fb4efac1-7165-41b8-92ca-47208c0fe937</div></td></tr><tr><td style="font-weight:bold;vertical-align:top;">session_id_name</td><td style="vertical-align:top;">:</td><td><div>session_id_resume</div></td></tr><tr><td style="font-weight:bold;vertical-align:top;">session_locked</td><td style="vertical-align:top;">:</td><td><div>True</div></td></tr><tr><td style="font-weight:bold;vertical-align:top;">session_masterapp</td><td style="vertical-align:top;">:</td><td><div>resume</div></td></tr><tr><td style="font-weight:bold;vertical-align:top;">session_new</td><td style="vertical-align:top;">:</td><td><div>False</div></td></tr><tr><td style="font-weight:bold;vertical-align:top;">session_storage_type</td><td style="vertical-align:top;">:</td><td><div>file</div></td></tr><tr><td style="font-weight:bold;vertical-align:top;">status</td><td style="vertical-align:top;">:</td><td><div>200</div></td></tr><tr><td style="font-weight:bold;vertical-align:top;">view</td><td style="vertical-align:top;">:</td><td><div>appadmin/hooks.html</div></td></tr></table></div>'
tRp114
sS'locals'
p115
(dp116
S'Service'
p117
S"<class 'gluon.tools.Service'>"
p118
sS'OBJECT'
p119
S"<class 'gluon.html.OBJECT'>"
p120
sS'SQLDB'
p121
S"<class 'pydal.base.DAL'>"
p122
sg107
S"<Storage {'flash': None}>"
p123
sS'LINK'
p124
S"<class 'gluon.html.LINK'>"
p125
sS'BR'
p126
S"<class 'gluon.html.BR'>"
p127
sS'local_import'
p128
S'<function <lambda>>'
p129
sS'OPTGROUP'
p130
S"<class 'gluon.html.OPTGROUP'>"
p131
sS'LI'
p132
S"<class 'gluon.html.LI'>"
p133
sS'PRE'
p134
S"<class 'gluon.html.PRE'>"
p135
sS'IS_INT_IN_RANGE'
p136
S"<class 'gluon.validators.IS_INT_IN_RANGE'>"
p137
sS'IS_LOWER'
p138
S"<class 'gluon.validators.IS_LOWER'>"
p139
sS'IS_STRONG'
p140
S"<class 'gluon.validators.IS_STRONG'>"
p141
sS'cache'
p142
S'<gluon.cache.Cache object>'
p143
sS'IS_IN_DB'
p144
S"<class 'gluon.validators.IS_IN_DB'>"
p145
sS'TAG'
p146
S'<gluon.html.__TAG__ object>'
p147
sS'SQLField'
p148
S"<class 'pydal.objects.Field'>"
p149
sS'BODY'
p150
S"<class 'gluon.html.BODY'>"
p151
sS'IS_DATE_IN_RANGE'
p152
S"<class 'gluon.validators.IS_DATE_IN_RANGE'>"
p153
sS'TH'
p154
S"<class 'gluon.html.TH'>"
p155
sS'URL'
p156
S'<function URL>'
p157
sS'__file__'
p158
S"'/home/saiteja/Desktop/web2py/applications/resume/models/db.py'"
p159
sS'db'
p160
S'<DAL uri="sqlite://storage.sqlite">'
p161
sS'auth'
p162
S'<gluon.tools.Auth object>'
p163
sS'P'
S"<class 'gluon.html.P'>"
p164
sS'TFOOT'
p165
S"<class 'gluon.html.TFOOT'>"
p166
sS'XHTML'
p167
S"<class 'gluon.html.XHTML'>"
p168
sS'ON'
p169
S'True'
p170
sS'OL'
p171
S"<class 'gluon.html.OL'>"
p172
sS'TEXTAREA'
p173
S"<class 'gluon.html.TEXTAREA'>"
p174
sS'MENU'
p175
S"<class 'gluon.html.MENU'>"
p176
sS'LOAD'
p177
S'<function LOAD>'
p178
sS'CODE'
p179
S"<class 'gluon.html.CODE'>"
p180
sS'HTTP'
p181
S"<class 'gluon.http.HTTP'>"
p182
sS'HR'
p183
S"<class 'gluon.html.HR'>"
p184
sS'IS_DATETIME'
p185
S"<class 'gluon.validators.IS_DATETIME'>"
p186
sS'HEAD'
p187
S"<class 'gluon.html.HEAD'>"
p188
sS'LABEL'
p189
S"<class 'gluon.html.LABEL'>"
p190
sS'CLEANUP'
p191
S"<class 'gluon.validators.CLEANUP'>"
p192
sS'plugins'
p193
S'<gluon.tools.PluginManager object>'
p194
sS'SELECT'
p195
S"<class 'gluon.html.SELECT'>"
p196
sS'CENTER'
p197
S"<class 'gluon.html.CENTER'>"
p198
sS'Auth'
p199
S"<class 'gluon.tools.Auth'>"
p200
sS'__builtins__'
p201
S"{'ArithmeticError': <type 'exceptions.ArithmeticError'>, 'AssertionError': <type 'exceptions.AssertionError'>, 'AttributeError': <type 'exceptions.AttributeError'>, 'BaseException': <type 'exceptions.BaseException'>, 'BufferError': <type 'exceptions.BufferError'>, 'BytesWarning': <type 'exceptions.BytesWarning'>, 'DeprecationWarning': <type 'exceptions.DeprecationWarning'>, 'EOFError': <type 'exceptions.EOFError'>, 'Ellipsis': Ellipsis, 'EnvironmentError': <type 'exceptions.EnvironmentError'>, ...}"
p202
sS'HTML'
p203
S"<class 'gluon.html.HTML'>"
p204
sS'SQLFORM'
p205
S"<class 'gluon.sqlhtml.SQLFORM'>"
p206
sS'EM'
p207
S"<class 'gluon.html.EM'>"
p208
sS'redirect'
p209
S'<function redirect>'
p210
sS'FIELDSET'
p211
S"<class 'gluon.html.FIELDSET'>"
p212
sS'IS_EQUAL_TO'
p213
S"<class 'gluon.validators.IS_EQUAL_TO'>"
p214
sS'embed64'
p215
S'<function embed64>'
p216
sS'IS_LIST_OF'
p217
S"<class 'gluon.validators.IS_LIST_OF'>"
p218
sS'__name__'
p219
S"'__restricted__'"
p220
sS'EMBED'
p221
S"<class 'gluon.html.EMBED'>"
p222
sS'FORM'
p223
S"<class 'gluon.html.FORM'>"
p224
sS'myconf'
p225
S"{'forms': {'formstyle': 'bootstrap3_inline', 'se...'you@gmail.com', 'server': 'smtp.gmail.com:587'}}"
p226
sS'H2'
p227
S"<class 'gluon.html.H2'>"
p228
sS'H3'
p229
S"<class 'gluon.html.H3'>"
p230
sS'AppConfig'
p231
S'<function AppConfig>'
p232
sS'H1'
p233
S"<class 'gluon.html.H1'>"
p234
sS'H6'
p235
S"<class 'gluon.html.H6'>"
p236
sS'H4'
p237
S"<class 'gluon.html.H4'>"
p238
sS'H5'
p239
S"<class 'gluon.html.H5'>"
p240
sS'UL'
p241
S"<class 'gluon.html.UL'>"
p242
sS'IS_UPPER'
p243
S"<class 'gluon.validators.IS_UPPER'>"
p244
sS'xmlescape'
p245
S'<function xmlescape>'
p246
sS'IS_TIME'
p247
S"<class 'gluon.validators.IS_TIME'>"
p248
sS'OPTION'
p249
S"<class 'gluon.html.OPTION'>"
p250
sS'TITLE'
p251
S"<class 'gluon.html.TITLE'>"
p252
sS'CRYPT'
p253
S"<class 'gluon.validators.CRYPT'>"
p254
sS'IS_EMPTY_OR'
p255
S"<class 'gluon.validators.IS_EMPTY_OR'>"
p256
sS'MARKMIN'
p257
S"<class 'gluon.html.MARKMIN'>"
p258
sS'INPUT'
p259
S"<class 'gluon.html.INPUT'>"
p260
sS'STRONG'
p261
S"<class 'gluon.html.STRONG'>"
p262
sS'COL'
p263
S"<class 'gluon.html.COL'>"
p264
sS'service'
p265
S'<gluon.tools.Service object>'
p266
sS'SCRIPT'
p267
S"<class 'gluon.html.SCRIPT'>"
p268
sS'GENDER'
p269
S"('Male', 'Female', 'Others')"
p270
sS'TABLE'
p271
S"<class 'gluon.html.TABLE'>"
p272
sS'IS_IPV4'
p273
S"<class 'gluon.validators.IS_IPV4'>"
p274
sS'IS_LENGTH'
p275
S"<class 'gluon.validators.IS_LENGTH'>"
p276
sS'IS_IPV6'
p277
S"<class 'gluon.validators.IS_IPV6'>"
p278
sS'XML'
p279
S"<class 'gluon.html.XML'>"
p280
sS'B'
S"<class 'gluon.html.B'>"
p281
sS'IMG'
p282
S"<class 'gluon.html.IMG'>"
p283
sS'COUNTRIES'
p284
S"('United States', 'Afghanistan', 'Albania', 'Algeria', 'Andorra', 'Angola', 'Antigua and Barbuda', 'Argentina', 'Armenia', 'Australia', 'Austria', 'Azerbaijan', 'Bahamas', 'Bahrain', 'Bangladesh', 'Barbados', 'Belarus', 'Belgium', 'Belize', 'Benin', ...)"
p285
sS'SQLTABLE'
p286
S"<class 'gluon.sqlhtml.SQLTABLE'>"
p287
sS'IS_MATCH'
p288
S"<class 'gluon.validators.IS_MATCH'>"
p289
sS'IS_ALPHANUMERIC'
p290
S"<class 'gluon.validators.IS_ALPHANUMERIC'>"
p291
sS'SPAN'
p292
S"<class 'gluon.html.SPAN'>"
p293
sS'IS_JSON'
p294
S"<class 'gluon.validators.IS_JSON'>"
p295
sS'IS_IPADDRESS'
p296
S"<class 'gluon.validators.IS_IPADDRESS'>"
p297
sS'IS_SLUG'
p298
S"<class 'gluon.validators.IS_SLUG'>"
p299
sS'BEAUTIFY'
p300
S"<class 'gluon.html.BEAUTIFY'>"
p301
sS'META'
p302
S"<class 'gluon.html.META'>"
p303
sS'TYPE'
p304
S"('Individual', 'Organization')"
p305
sS'BUTTON'
p306
S"<class 'gluon.html.BUTTON'>"
p307
sS'IS_DATE'
p308
S"<class 'gluon.validators.IS_DATE'>"
p309
sS'IS_EMAIL'
p310
S"<class 'gluon.validators.IS_EMAIL'>"
p311
sS'IS_NOT_EMPTY'
p312
S"<class 'gluon.validators.IS_NOT_EMPTY'>"
p313
sS'IS_FLOAT_IN_RANGE'
p314
S"<class 'gluon.validators.IS_FLOAT_IN_RANGE'>"
p315
sS'TBODY'
p316
S"<class 'gluon.html.TBODY'>"
p317
sS'CAT'
p318
S"<class 'gluon.html.CAT'>"
p319
sS'Field'
p320
S"<class 'pydal.objects.Field'>"
p321
sS'IS_LIST_OF_EMAILS'
p322
S"<class 'gluon.validators.IS_LIST_OF_EMAILS'>"
p323
sS'DIV'
p324
S"<class 'gluon.html.DIV'>"
p325
sS'LEGEND'
p326
S"<class 'gluon.html.LEGEND'>"
p327
sS'COLGROUP'
p328
S"<class 'gluon.html.COLGROUP'>"
p329
sS'DAL'
p330
S"<class 'pydal.base.DAL'>"
p331
sS'ASSIGNJS'
p332
S'<function ASSIGNJS>'
p333
sS'TR'
p334
S"<class 'gluon.html.TR'>"
p335
sS'__package__'
p336
S'None'
p337
sS'IFRAME'
p338
S"<class 'gluon.html.IFRAME'>"
p339
sS'TD'
p340
S"<class 'gluon.html.TD'>"
p341
sS'PluginManager'
p342
S"<class 'gluon.tools.PluginManager'>"
p343
sS'IS_URL'
p344
S"<class 'gluon.validators.IS_URL'>"
p345
sS'A'
S"<class 'gluon.html.A'>"
p346
sS'STYLE'
p347
S"<class 'gluon.html.STYLE'>"
p348
sS'IS_DATETIME_IN_RANGE'
p349
S"<class 'gluon.validators.IS_DATETIME_IN_RANGE'>"
p350
sS'IS_IMAGE'
p351
S"<class 'gluon.validators.IS_IMAGE'>"
p352
sS'I'
S"<class 'gluon.html.I'>"
p353
sS'IS_NOT_IN_DB'
p354
S"<class 'gluon.validators.IS_NOT_IN_DB'>"
p355
sg113
S"<Storage {'body': <cStringIO.StringO object at 0... 0x7fc56d0dc7d0>, 'view': 'appadmin/hooks.html'}>"
p356
sS'THEAD'
p357
S"<class 'gluon.html.THEAD'>"
p358
sS'ANY_OF'
p359
S"<class 'gluon.validators.ANY_OF'>"
p360
sS'IS_NULL_OR'
p361
S"<class 'gluon.validators.IS_EMPTY_OR'>"
p362
sg56
S"<Storage {'_vars': None, 'function': 'hooks', 'c...me/saiteja/Desktop/web2py/applications/resume/'}>"
p363
sS'IS_EXPR'
p364
S"<class 'gluon.validators.IS_EXPR'>"
p365
sS'IS_IN_SET'
p366
S"<class 'gluon.validators.IS_IN_SET'>"
p367
sS'IS_UPLOAD_FILENAME'
p368
S"<class 'gluon.validators.IS_UPLOAD_FILENAME'>"
p369
sS'IS_DECIMAL_IN_RANGE'
p370
S"<class 'gluon.validators.IS_DECIMAL_IN_RANGE'>"
p371
sS'TT'
p372
S"<class 'gluon.html.TT'>"
p373
sS'T'
S'<gluon.languages.translator object>'
p374
sssS'traceback'
p375
S'Traceback (most recent call last):\n  File "/home/saiteja/Desktop/web2py/gluon/restricted.py", line 227, in restricted\n    exec ccode in environment\n  File "/home/saiteja/Desktop/web2py/applications/resume/models/db.py", line 68, in <module>\n    auth.gender.show_if = (auth.Account_Type == "Individual")\nAttributeError: \'Auth\' object has no attribute \'Account_Type\'\n'
p376
s.